EXPORTS 
	??_R0?AU_Crt_new_delete@std@@@8 	 DATA
	??_R0?AV?$_Func_base@PEAUggml_cgraph@@$$V@std@@@8 	 DATA
	??_R0?AV?$_Iosb@H@std@@@8 	 DATA
	??_R0?AV?$basic_filebuf@DU?$char_traits@D@std@@@std@@@8 	 DATA
	??_R0?AV?$basic_ifstream@DU?$char_traits@D@std@@@std@@@8 	 DATA
	??_R0?AV?$basic_ios@DU?$char_traits@D@std@@@std@@@8 	 DATA
	??_R0?AV?$basic_istream@DU?$char_traits@D@std@@@std@@@8 	 DATA
	??_R0?AV?$basic_ofstream@DU?$char_traits@D@std@@@std@@@8 	 DATA
	??_R0?AV?$basic_ostream@DU?$char_traits@D@std@@@std@@@8 	 DATA
	??_R0?AV?$basic_streambuf@DU?$char_traits@D@std@@@std@@@8 	 DATA
	??_R0?AV?$codecvt@_WDU_Mbstatet@@@std@@@8 	 DATA
	??_R0?AV?$codecvt_utf8@_W$0BAPPPP@$0A@@std@@@8 	 DATA
	??_R0?AV?$wstring_convert@V?$codecvt_utf8@_W$0BAPPPP@$0A@@std@@_WV?$allocator@_W@2@V?$allocator@D@2@@std@@@8 	 DATA
	??_R0?AV_Facet_base@std@@@8 	 DATA
	??_R0?AVbad_alloc@std@@@8 	 DATA
	??_R0?AVbad_array_new_length@std@@@8 	 DATA
	??_R0?AVbad_cast@std@@@8 	 DATA
	??_R0?AVcodecvt_base@std@@@8 	 DATA
	??_R0?AVexception@std@@@8 	 DATA
	??_R0?AVfacet@locale@std@@@8 	 DATA
	??_R0?AVios_base@std@@@8 	 DATA
	??_R0?AVrange_error@std@@@8 	 DATA
	??_R0?AVruntime_error@std@@@8 	 DATA
	?_OptionsStorage@?1??__local_stdio_printf_options@@9@4_KA 	 DATA
	?_Psave@?$_Facetptr@V?$codecvt@DDU_Mbstatet@@@std@@@std@@2PEBVfacet@locale@2@EB 	 DATA
	?_Stinit@?1??_Init@?$basic_filebuf@DU?$char_traits@D@std@@@std@@IEAAXPEAU_iobuf@@W4_Initfl@23@@Z@4U_Mbstatet@@A 	 DATA
	_Avx2WmemEnabledWeakValue 	 DATA
	??$?0$$QEAV?$basic_string@DU?$char_traits@D@std@@V?$allocator@D@2@@std@@$$Z$$V@?$pair@$$CBV?$basic_string@DU?$char_traits@D@std@@V?$allocator@D@2@@std@@H@std@@QEAA@Upiecewise_construct_t@1@V?$tuple@$$QEAV?$basic_string@DU?$char_traits@D@std@@V?$allocator@D@2@@std@@@1@V?$tuple@$$V@1@@Z
	??$?0$$QEAV?$basic_string@DU?$char_traits@D@std@@V?$allocator@D@2@@std@@$$Z$$V@?$pair@$$CBV?$basic_string@DU?$char_traits@D@std@@V?$allocator@D@2@@std@@PEAUggml_tensor@@@std@@QEAA@Upiecewise_construct_t@1@V?$tuple@$$QEAV?$basic_string@DU?$char_traits@D@std@@V?$allocator@D@2@@std@@@1@V?$tuple@$$V@1@@Z
	??$?0$$V@?$_Compressed_pair@V?$allocator@D@std@@V?$_String_val@U?$_Simple_types@D@std@@@2@$00@std@@QEAA@U_Zero_then_variadic_args_t@1@@Z
	??$?0$$V@?$_Compressed_pair@V?$allocator@D@std@@V?$_Vector_val@U?$_Simple_types@D@std@@@2@$00@std@@QEAA@U_Zero_then_variadic_args_t@1@@Z
	??$?0$$V@?$_Compressed_pair@V?$allocator@E@std@@V?$_Vector_val@U?$_Simple_types@E@std@@@2@$00@std@@QEAA@U_Zero_then_variadic_args_t@1@@Z
	??$?0$$V@?$_Compressed_pair@V?$allocator@H@std@@V?$_Vector_val@U?$_Simple_types@H@std@@@2@$00@std@@QEAA@U_Zero_then_variadic_args_t@1@@Z
	??$?0$$V@?$_Compressed_pair@V?$allocator@I@std@@V?$_Vector_val@U?$_Simple_types@I@std@@@2@$00@std@@QEAA@U_Zero_then_variadic_args_t@1@@Z
	??$?0$$V@?$_Compressed_pair@V?$allocator@M@std@@V?$_Vector_val@U?$_Simple_types@M@std@@@2@$00@std@@QEAA@U_Zero_then_variadic_args_t@1@@Z
	??$?0$$V@?$_Compressed_pair@V?$allocator@PEAUggml_backend@@@std@@V?$_Vector_val@U?$_Simple_types@PEAUggml_backend@@@std@@@2@$00@std@@QEAA@U_Zero_then_variadic_args_t@1@@Z
	??$?0$$V@?$_Compressed_pair@V?$allocator@PEAUggml_backend_buffer@@@std@@V?$_Vector_val@U?$_Simple_types@PEAUggml_backend_buffer@@@std@@@2@$00@std@@QEAA@U_Zero_then_variadic_args_t@1@@Z
	??$?0$$V@?$_Compressed_pair@V?$allocator@PEAUggml_context@@@std@@V?$_Vector_val@U?$_Simple_types@PEAUggml_context@@@std@@@2@$00@std@@QEAA@U_Zero_then_variadic_args_t@1@@Z
	??$?0$$V@?$_Compressed_pair@V?$allocator@U?$_Tree_node@U?$pair@$$CBHV?$basic_string@DU?$char_traits@D@std@@V?$allocator@D@2@@std@@@std@@PEAX@std@@@std@@V?$_Tree_val@U?$_Tree_simple_types@U?$pair@$$CBHV?$basic_string@DU?$char_traits@D@std@@V?$allocator@D@2@@std@@@std@@@std@@@2@$00@std@@QEAA@U_Zero_then_variadic_args_t@1@@Z
	??$?0$$V@?$_Compressed_pair@V?$allocator@U?$_Tree_node@U?$pair@$$CBV?$basic_string@DU?$char_traits@D@std@@V?$allocator@D@2@@std@@H@std@@PEAX@std@@@std@@V?$_Tree_val@U?$_Tree_simple_types@U?$pair@$$CBV?$basic_string@DU?$char_traits@D@std@@V?$allocator@D@2@@std@@H@std@@@std@@@2@$00@std@@QEAA@U_Zero_then_variadic_args_t@1@@Z
	??$?0$$V@?$_Compressed_pair@V?$allocator@U?$_Tree_node@U?$pair@$$CBV?$basic_string@DU?$char_traits@D@std@@V?$allocator@D@2@@std@@PEAUggml_tensor@@@std@@PEAX@std@@@std@@V?$_Tree_val@U?$_Tree_simple_types@U?$pair@$$CBV?$basic_string@DU?$char_traits@D@std@@V?$allocator@D@2@@std@@PEAUggml_tensor@@@std@@@std@@@2@$00@std@@QEAA@U_Zero_then_variadic_args_t@1@@Z
	??$?0$$V@?$_Compressed_pair@V?$allocator@U?$_Tree_node@U?$pair@$$CBW4parakeet_tensor@@PEBD@std@@PEAX@std@@@std@@V?$_Tree_val@U?$_Tree_simple_types@U?$pair@$$CBW4parakeet_tensor@@PEBD@std@@@std@@@2@$00@std@@QEAA@U_Zero_then_variadic_args_t@1@@Z
	??$?0$$V@?$_Compressed_pair@V?$allocator@U?$_Tree_node@U?$pair@$$CBW4parakeet_tensor@@W4ggml_op@@@std@@PEAX@std@@@std@@V?$_Tree_val@U?$_Tree_simple_types@U?$pair@$$CBW4parakeet_tensor@@W4ggml_op@@@std@@@std@@@2@$00@std@@QEAA@U_Zero_then_variadic_args_t@1@@Z
	??$?0$$V@?$_Compressed_pair@V?$allocator@U?$_Tree_node@U?$pair@QEAUggml_backend_buffer_type@@PEAUggml_context@@@std@@PEAX@std@@@std@@V?$_Tree_val@U?$_Tree_simple_types@U?$pair@QEAUggml_backend_buffer_type@@PEAUggml_context@@@std@@@std@@@2@$00@std@@QEAA@U_Zero_then_variadic_args_t@1@@Z
	??$?0$$V@?$_Compressed_pair@V?$allocator@U?$pair@PEAUggml_backend_device@@PEAUggml_backend_buffer_type@@@std@@@std@@V?$_Vector_val@U?$_Simple_types@U?$pair@PEAUggml_backend_device@@PEAUggml_backend_buffer_type@@@std@@@std@@@2@$00@std@@QEAA@U_Zero_then_variadic_args_t@1@@Z
	??$?0$$V@?$_Compressed_pair@V?$allocator@Uparakeet_layer_encoder@@@std@@V?$_Vector_val@U?$_Simple_types@Uparakeet_layer_encoder@@@std@@@2@$00@std@@QEAA@U_Zero_then_variadic_args_t@1@@Z
	??$?0$$V@?$_Compressed_pair@V?$allocator@Uparakeet_lsmt_layer@@@std@@V?$_Vector_val@U?$_Simple_types@Uparakeet_lsmt_layer@@@std@@@2@$00@std@@QEAA@U_Zero_then_variadic_args_t@1@@Z
	??$?0$$V@?$_Compressed_pair@V?$allocator@Uparakeet_lstm_state_layer@@@std@@V?$_Vector_val@U?$_Simple_types@Uparakeet_lstm_state_layer@@@std@@@2@$00@std@@QEAA@U_Zero_then_variadic_args_t@1@@Z
	??$?0$$V@?$_Compressed_pair@V?$allocator@Uparakeet_segment@@@std@@V?$_Vector_val@U?$_Simple_types@Uparakeet_segment@@@std@@@2@$00@std@@QEAA@U_Zero_then_variadic_args_t@1@@Z
	??$?0$$V@?$_Compressed_pair@V?$allocator@Uparakeet_token_data@@@std@@V?$_Vector_val@U?$_Simple_types@Uparakeet_token_data@@@std@@@2@$00@std@@QEAA@U_Zero_then_variadic_args_t@1@@Z
	??$?0$$V@?$_Compressed_pair@V?$allocator@_W@std@@V?$_String_val@U?$_Simple_types@_W@std@@@2@$00@std@@QEAA@U_Zero_then_variadic_args_t@1@@Z
	??$?0A6AXUmel_worker_params@@PEBMAEBV?$vector@MV?$allocator@M@std@@@std@@AEBUparakeet_filters@@AEAUparakeet_mel@@AEBUparakeet_mel_cache@@@Z@?$_Tuple_val@P6AXUmel_worker_params@@PEBMAEBV?$vector@MV?$allocator@M@std@@@std@@AEBUparakeet_filters@@AEAUparakeet_mel@@AEBUparakeet_mel_cache@@@Z@std@@QEAA@A6AXUmel_worker_params@@PEBMAEBV?$vector@MV?$allocator@M@std@@@1@AEBUparakeet_filters@@AEAUparakeet_mel@@AEBUparakeet_mel_cache@@@Z@Z
	??$?0A6AXUmel_worker_params@@PEBMAEBV?$vector@MV?$allocator@M@std@@@std@@AEBUparakeet_filters@@AEAUparakeet_mel@@AEBUparakeet_mel_cache@@@ZAEAU0@AEAPEBMV?$reference_wrapper@$$CBV?$vector@MV?$allocator@M@std@@@std@@@2@V?$reference_wrapper@$$CBUparakeet_filters@@@2@V?$reference_wrapper@Uparakeet_mel@@@2@V?$reference_wrapper@$$CBUparakeet_mel_cache@@@2@$0A@@?$tuple@P6AXUmel_worker_params@@PEBMAEBV?$vector@MV?$allocator@M@std@@@std@@AEBUparakeet_filters@@AEAUparakeet_mel@@AEBUparakeet_mel_cache@@@ZU1@PEBMV?$reference_wrapper@$$CBV?$vector@MV?$allocator@M@std@@@std@@@3@V?$reference_wrapper@$$CBUparakeet_filters@@@3@V?$reference_wrapper@Uparakeet_mel@@@3@V?$reference_wrapper@$$CBUparakeet_mel_cache@@@3@@std@@QEAA@A6AXUmel_worker_params@@PEBMAEBV?$vector@MV?$allocator@M@std@@@1@AEBUparakeet_filters@@AEAUparakeet_mel@@AEBUparakeet_mel_cache@@@ZAEAU2@AEAPEBM$$QEAV?$reference_wrapper@$$CBV?$vector@MV?$allocator@M@std@@@std@@@1@$$QEAV?$reference_wrapper@$$CBUparakeet_filters@@@1@$$QEAV?$reference_wrapper@Uparakeet_mel@@@1@$$QEAV?$reference_wrapper@$$CBUparakeet_mel_cache@@@1@@Z
	??$?0A6AXUmel_worker_params@@PEBMAEBV?$vector@MV?$allocator@M@std@@@std@@AEBUparakeet_filters@@AEAUparakeet_mel@@AEBUparakeet_mel_cache@@@ZAEAU0@AEAPEBMV?$reference_wrapper@$$CBV?$vector@MV?$allocator@M@std@@@std@@@2@V?$reference_wrapper@$$CBUparakeet_filters@@@2@V?$reference_wrapper@Uparakeet_mel@@@2@V?$reference_wrapper@$$CBUparakeet_mel_cache@@@2@$0A@@thread@std@@QEAA@A6AXUmel_worker_params@@PEBMAEBV?$vector@MV?$allocator@M@std@@@1@AEBUparakeet_filters@@AEAUparakeet_mel@@AEBUparakeet_mel_cache@@@ZAEAU2@AEAPEBM$$QEAV?$reference_wrapper@$$CBV?$vector@MV?$allocator@M@std@@@std@@@1@$$QEAV?$reference_wrapper@$$CBUparakeet_filters@@@1@$$QEAV?$reference_wrapper@Uparakeet_mel@@@1@$$QEAV?$reference_wrapper@$$CBUparakeet_mel_cache@@@1@@Z
	??$?0AEAPEAUggml_backend_device@@AEAPEAUggml_backend_buffer_type@@$0A@@?$pair@PEAUggml_backend_device@@PEAUggml_backend_buffer_type@@@std@@QEAA@AEAPEAUggml_backend_device@@AEAPEAUggml_backend_buffer_type@@@Z
	??$?0AEAPEAUggml_backend_device@@PEAUggml_backend_buffer_type@@$0A@@?$pair@PEAUggml_backend_device@@PEAUggml_backend_buffer_type@@@std@@QEAA@AEAPEAUggml_backend_device@@$$QEAPEAUggml_backend_buffer_type@@@Z
	??$?0AEAPEAUggml_context@@@?$_Compressed_pair@Uggml_context_deleter@@PEAUggml_context@@$00@std@@QEAA@U_Zero_then_variadic_args_t@1@AEAPEAUggml_context@@@Z
	??$?0AEAPEAV?$tuple@P6AXUmel_worker_params@@PEBMAEBV?$vector@MV?$allocator@M@std@@@std@@AEBUparakeet_filters@@AEAUparakeet_mel@@AEBUparakeet_mel_cache@@@ZU1@PEBMV?$reference_wrapper@$$CBV?$vector@MV?$allocator@M@std@@@std@@@3@V?$reference_wrapper@$$CBUparakeet_filters@@@3@V?$reference_wrapper@Uparakeet_mel@@@3@V?$reference_wrapper@$$CBUparakeet_mel_cache@@@3@@std@@@?$_Compressed_pair@U?$default_delete@V?$tuple@P6AXUmel_worker_params@@PEBMAEBV?$vector@MV?$allocator@M@std@@@std@@AEBUparakeet_filters@@AEAUparakeet_mel@@AEBUparakeet_mel_cache@@@ZU1@PEBMV?$reference_wrapper@$$CBV?$vector@MV?$allocator@M@std@@@std@@@3@V?$reference_wrapper@$$CBUparakeet_filters@@@3@V?$reference_wrapper@Uparakeet_mel@@@3@V?$reference_wrapper@$$CBUparakeet_mel_cache@@@3@@std@@@std@@PEAV?$tuple@P6AXUmel_worker_params@@PEBMAEBV?$vector@MV?$allocator@M@std@@@std@@AEBUparakeet_filters@@AEAUparakeet_mel@@AEBUparakeet_mel_cache@@@ZU1@PEBMV?$reference_wrapper@$$CBV?$vector@MV?$allocator@M@std@@@std@@@3@V?$reference_wrapper@$$CBUparakeet_filters@@@3@V?$reference_wrapper@Uparakeet_mel@@@3@V?$reference_wrapper@$$CBUparakeet_mel_cache@@@3@@2@$00@std@@QEAA@U_Zero_then_variadic_args_t@1@AEAPEAV?$tuple@P6AXUmel_worker_params@@PEBMAEBV?$vector@MV?$allocator@M@std@@@std@@AEBUparakeet_filters@@AEAUparakeet_mel@@AEBUparakeet_mel_cache@@@ZU1@PEBMV?$reference_wrapper@$$CBV?$vector@MV?$allocator@M@std@@@std@@@3@V?$reference_wrapper@$$CBUparakeet_filters@@@3@V?$reference_wrapper@Uparakeet_mel@@@3@V?$reference_wrapper@$$CBUparakeet_mel_cache@@@3@@1@@Z
	??$?0AEAPEAV_Facet_base@std@@@?$_Compressed_pair@U?$default_delete@V_Facet_base@std@@@std@@PEAV_Facet_base@2@$00@std@@QEAA@U_Zero_then_variadic_args_t@1@AEAPEAV_Facet_base@1@@Z
	??$?0AEAPEBM@?$_Tuple_val@PEBM@std@@QEAA@AEAPEBM@Z
	??$?0AEAUmel_worker_params@@@?$_Tuple_val@Umel_worker_params@@@std@@QEAA@AEAUmel_worker_params@@@Z
	??$?0AEAUparakeet_mel@@$0A@@?$reference_wrapper@Uparakeet_mel@@@std@@QEAA@AEAUparakeet_mel@@@Z
	??$?0AEBH$$Z$$V@?$pair@$$CBHV?$basic_string@DU?$char_traits@D@std@@V?$allocator@D@2@@std@@@std@@QEAA@Upiecewise_construct_t@1@V?$tuple@AEBH@1@V?$tuple@$$V@1@@Z
	??$?0AEBH$0A@@?$tuple@AEBH@std@@QEAA@AEBH@Z
	??$?0AEBH@?$_Tuple_val@AEBH@std@@QEAA@AEBH@Z
	??$?0AEBQEAU?$_Tree_node@U?$pair@$$CBHV?$basic_string@DU?$char_traits@D@std@@V?$allocator@D@2@@std@@@std@@PEAX@std@@_N$0A@@?$pair@PEAU?$_Tree_node@U?$pair@$$CBHV?$basic_string@DU?$char_traits@D@std@@V?$allocator@D@2@@std@@@std@@PEAX@std@@_N@std@@QEAA@AEBQEAU?$_Tree_node@U?$pair@$$CBHV?$basic_string@DU?$char_traits@D@std@@V?$allocator@D@2@@std@@@std@@PEAX@1@$$QEA_N@Z
	??$?0AEBQEAU?$_Tree_node@U?$pair@$$CBV?$basic_string@DU?$char_traits@D@std@@V?$allocator@D@2@@std@@H@std@@PEAX@std@@_N$0A@@?$pair@PEAU?$_Tree_node@U?$pair@$$CBV?$basic_string@DU?$char_traits@D@std@@V?$allocator@D@2@@std@@H@std@@PEAX@std@@_N@std@@QEAA@AEBQEAU?$_Tree_node@U?$pair@$$CBV?$basic_string@DU?$char_traits@D@std@@V?$allocator@D@2@@std@@H@std@@PEAX@1@$$QEA_N@Z
	??$?0AEBQEAU?$_Tree_node@U?$pair@$$CBV?$basic_string@DU?$char_traits@D@std@@V?$allocator@D@2@@std@@PEAUggml_tensor@@@std@@PEAX@std@@_N$0A@@?$pair@PEAU?$_Tree_node@U?$pair@$$CBV?$basic_string@DU?$char_traits@D@std@@V?$allocator@D@2@@std@@PEAUggml_tensor@@@std@@PEAX@std@@_N@std@@QEAA@AEBQEAU?$_Tree_node@U?$pair@$$CBV?$basic_string@DU?$char_traits@D@std@@V?$allocator@D@2@@std@@PEAUggml_tensor@@@std@@PEAX@1@$$QEA_N@Z
	??$?0AEBQEAU?$_Tree_node@U?$pair@QEAUggml_backend_buffer_type@@PEAUggml_context@@@std@@PEAX@std@@_N$0A@@?$pair@PEAU?$_Tree_node@U?$pair@QEAUggml_backend_buffer_type@@PEAUggml_context@@@std@@PEAX@std@@_N@std@@QEAA@AEBQEAU?$_Tree_node@U?$pair@QEAUggml_backend_buffer_type@@PEAUggml_context@@@std@@PEAX@1@$$QEA_N@Z
	??$?0AEBQEAUggml_backend_buffer_type@@$$Z$$V@?$pair@QEAUggml_backend_buffer_type@@PEAUggml_context@@@std@@QEAA@Upiecewise_construct_t@1@V?$tuple@AEBQEAUggml_backend_buffer_type@@@1@V?$tuple@$$V@1@@Z
	??$?0AEBQEAUggml_backend_buffer_type@@$0A@@?$tuple@AEBQEAUggml_backend_buffer_type@@@std@@QEAA@AEBQEAUggml_backend_buffer_type@@@Z
	??$?0AEBQEAUggml_backend_buffer_type@@@?$_Tuple_val@AEBQEAUggml_backend_buffer_type@@@std@@QEAA@AEBQEAUggml_backend_buffer_type@@@Z
	??$?0AEBU?$less@H@std@@U_Zero_then_variadic_args_t@1@@?$_Compressed_pair@U?$less@H@std@@V?$_Compressed_pair@V?$allocator@U?$_Tree_node@U?$pair@$$CBHV?$basic_string@DU?$char_traits@D@std@@V?$allocator@D@2@@std@@@std@@PEAX@std@@@std@@V?$_Tree_val@U?$_Tree_simple_types@U?$pair@$$CBHV?$basic_string@DU?$char_traits@D@std@@V?$allocator@D@2@@std@@@std@@@std@@@2@$00@2@$00@std@@QEAA@U_One_then_variadic_args_t@1@AEBU?$less@H@1@$$QEAU_Zero_then_variadic_args_t@1@@Z
	??$?0AEBU?$less@PEAUggml_backend_buffer_type@@@std@@U_Zero_then_variadic_args_t@1@@?$_Compressed_pair@U?$less@PEAUggml_backend_buffer_type@@@std@@V?$_Compressed_pair@V?$allocator@U?$_Tree_node@U?$pair@QEAUggml_backend_buffer_type@@PEAUggml_context@@@std@@PEAX@std@@@std@@V?$_Tree_val@U?$_Tree_simple_types@U?$pair@QEAUggml_backend_buffer_type@@PEAUggml_context@@@std@@@std@@@2@$00@2@$00@std@@QEAA@U_One_then_variadic_args_t@1@AEBU?$less@PEAUggml_backend_buffer_type@@@1@$$QEAU_Zero_then_variadic_args_t@1@@Z
	??$?0AEBU?$less@V?$basic_string@DU?$char_traits@D@std@@V?$allocator@D@2@@std@@@std@@U_Zero_then_variadic_args_t@1@@?$_Compressed_pair@U?$less@V?$basic_string@DU?$char_traits@D@std@@V?$allocator@D@2@@std@@@std@@V?$_Compressed_pair@V?$allocator@U?$_Tree_node@U?$pair@$$CBV?$basic_string@DU?$char_traits@D@std@@V?$allocator@D@2@@std@@H@std@@PEAX@std@@@std@@V?$_Tree_val@U?$_Tree_simple_types@U?$pair@$$CBV?$basic_string@DU?$char_traits@D@std@@V?$allocator@D@2@@std@@H@std@@@std@@@2@$00@2@$00@std@@QEAA@U_One_then_variadic_args_t@1@AEBU?$less@V?$basic_string@DU?$char_traits@D@std@@V?$allocator@D@2@@std@@@1@$$QEAU_Zero_then_variadic_args_t@1@@Z
	??$?0AEBU?$less@V?$basic_string@DU?$char_traits@D@std@@V?$allocator@D@2@@std@@@std@@U_Zero_then_variadic_args_t@1@@?$_Compressed_pair@U?$less@V?$basic_string@DU?$char_traits@D@std@@V?$allocator@D@2@@std@@@std@@V?$_Compressed_pair@V?$allocator@U?$_Tree_node@U?$pair@$$CBV?$basic_string@DU?$char_traits@D@std@@V?$allocator@D@2@@std@@PEAUggml_tensor@@@std@@PEAX@std@@@std@@V?$_Tree_val@U?$_Tree_simple_types@U?$pair@$$CBV?$basic_string@DU?$char_traits@D@std@@V?$allocator@D@2@@std@@PEAUggml_tensor@@@std@@@std@@@2@$00@2@$00@std@@QEAA@U_One_then_variadic_args_t@1@AEBU?$less@V?$basic_string@DU?$char_traits@D@std@@V?$allocator@D@2@@std@@@1@$$QEAU_Zero_then_variadic_args_t@1@@Z
	??$?0AEBU?$less@W4parakeet_tensor@@@std@@U_Zero_then_variadic_args_t@1@@?$_Compressed_pair@U?$less@W4parakeet_tensor@@@std@@V?$_Compressed_pair@V?$allocator@U?$_Tree_node@U?$pair@$$CBW4parakeet_tensor@@PEBD@std@@PEAX@std@@@std@@V?$_Tree_val@U?$_Tree_simple_types@U?$pair@$$CBW4parakeet_tensor@@PEBD@std@@@std@@@2@$00@2@$00@std@@QEAA@U_One_then_variadic_args_t@1@AEBU?$less@W4parakeet_tensor@@@1@$$QEAU_Zero_then_variadic_args_t@1@@Z
	??$?0AEBU?$less@W4parakeet_tensor@@@std@@U_Zero_then_variadic_args_t@1@@?$_Compressed_pair@U?$less@W4parakeet_tensor@@@std@@V?$_Compressed_pair@V?$allocator@U?$_Tree_node@U?$pair@$$CBW4parakeet_tensor@@W4ggml_op@@@std@@PEAX@std@@@std@@V?$_Tree_val@U?$_Tree_simple_types@U?$pair@$$CBW4parakeet_tensor@@W4ggml_op@@@std@@@std@@@2@$00@2@$00@std@@QEAA@U_One_then_variadic_args_t@1@AEBU?$less@W4parakeet_tensor@@@1@$$QEAU_Zero_then_variadic_args_t@1@@Z
	??$?0AEBU?$pair@$$CBW4parakeet_tensor@@PEBD@std@@@?$_Tree_temp_node@V?$allocator@U?$_Tree_node@U?$pair@$$CBW4parakeet_tensor@@PEBD@std@@PEAX@std@@@std@@@std@@QEAA@AEAV?$allocator@U?$_Tree_node@U?$pair@$$CBW4parakeet_tensor@@PEBD@std@@PEAX@std@@@1@PEAU?$_Tree_node@U?$pair@$$CBW4parakeet_tensor@@PEBD@std@@PEAX@1@AEBU?$pair@$$CBW4parakeet_tensor@@PEBD@1@@Z
	??$?0AEBU?$pair@$$CBW4parakeet_tensor@@W4ggml_op@@@std@@@?$_Tree_temp_node@V?$allocator@U?$_Tree_node@U?$pair@$$CBW4parakeet_tensor@@W4ggml_op@@@std@@PEAX@std@@@std@@@std@@QEAA@AEAV?$allocator@U?$_Tree_node@U?$pair@$$CBW4parakeet_tensor@@W4ggml_op@@@std@@PEAX@std@@@1@PEAU?$_Tree_node@U?$pair@$$CBW4parakeet_tensor@@W4ggml_op@@@std@@PEAX@1@AEBU?$pair@$$CBW4parakeet_tensor@@W4ggml_op@@@1@@Z
	??$?0AEBUparakeet_filters@@$0A@@?$reference_wrapper@$$CBUparakeet_filters@@@std@@QEAA@AEBUparakeet_filters@@@Z
	??$?0AEBUparakeet_mel_cache@@$0A@@?$reference_wrapper@$$CBUparakeet_mel_cache@@@std@@QEAA@AEBUparakeet_mel_cache@@@Z
	??$?0AEBUpiecewise_construct_t@std@@V?$tuple@$$QEAV?$basic_string@DU?$char_traits@D@std@@V?$allocator@D@2@@std@@@1@V?$tuple@$$V@1@@?$_Tree_temp_node@V?$allocator@U?$_Tree_node@U?$pair@$$CBV?$basic_string@DU?$char_traits@D@std@@V?$allocator@D@2@@std@@H@std@@PEAX@std@@@std@@@std@@QEAA@AEAV?$allocator@U?$_Tree_node@U?$pair@$$CBV?$basic_string@DU?$char_traits@D@std@@V?$allocator@D@2@@std@@H@std@@PEAX@std@@@1@PEAU?$_Tree_node@U?$pair@$$CBV?$basic_string@DU?$char_traits@D@std@@V?$allocator@D@2@@std@@H@std@@PEAX@1@AEBUpiecewise_construct_t@1@$$QEAV?$tuple@$$QEAV?$basic_string@DU?$char_traits@D@std@@V?$allocator@D@2@@std@@@1@$$QEAV?$tuple@$$V@1@@Z
	??$?0AEBUpiecewise_construct_t@std@@V?$tuple@$$QEAV?$basic_string@DU?$char_traits@D@std@@V?$allocator@D@2@@std@@@1@V?$tuple@$$V@1@@?$_Tree_temp_node@V?$allocator@U?$_Tree_node@U?$pair@$$CBV?$basic_string@DU?$char_traits@D@std@@V?$allocator@D@2@@std@@PEAUggml_tensor@@@std@@PEAX@std@@@std@@@std@@QEAA@AEAV?$allocator@U?$_Tree_node@U?$pair@$$CBV?$basic_string@DU?$char_traits@D@std@@V?$allocator@D@2@@std@@PEAUggml_tensor@@@std@@PEAX@std@@@1@PEAU?$_Tree_node@U?$pair@$$CBV?$basic_string@DU?$char_traits@D@std@@V?$allocator@D@2@@std@@PEAUggml_tensor@@@std@@PEAX@1@AEBUpiecewise_construct_t@1@$$QEAV?$tuple@$$QEAV?$basic_string@DU?$char_traits@D@std@@V?$allocator@D@2@@std@@@1@$$QEAV?$tuple@$$V@1@@Z
	??$?0AEBUpiecewise_construct_t@std@@V?$tuple@AEBH@1@V?$tuple@$$V@1@@?$_Tree_temp_node@V?$allocator@U?$_Tree_node@U?$pair@$$CBHV?$basic_string@DU?$char_traits@D@std@@V?$allocator@D@2@@std@@@std@@PEAX@std@@@std@@@std@@QEAA@AEAV?$allocator@U?$_Tree_node@U?$pair@$$CBHV?$basic_string@DU?$char_traits@D@std@@V?$allocator@D@2@@std@@@std@@PEAX@std@@@1@PEAU?$_Tree_node@U?$pair@$$CBHV?$basic_string@DU?$char_traits@D@std@@V?$allocator@D@2@@std@@@std@@PEAX@1@AEBUpiecewise_construct_t@1@$$QEAV?$tuple@AEBH@1@$$QEAV?$tuple@$$V@1@@Z
	??$?0AEBUpiecewise_construct_t@std@@V?$tuple@AEBQEAUggml_backend_buffer_type@@@1@V?$tuple@$$V@1@@?$_Tree_temp_node@V?$allocator@U?$_Tree_node@U?$pair@QEAUggml_backend_buffer_type@@PEAUggml_context@@@std@@PEAX@std@@@std@@@std@@QEAA@AEAV?$allocator@U?$_Tree_node@U?$pair@QEAUggml_backend_buffer_type@@PEAUggml_context@@@std@@PEAX@std@@@1@PEAU?$_Tree_node@U?$pair@QEAUggml_backend_buffer_type@@PEAUggml_context@@@std@@PEAX@1@AEBUpiecewise_construct_t@1@$$QEAV?$tuple@AEBQEAUggml_backend_buffer_type@@@1@$$QEAV?$tuple@$$V@1@@Z
	??$?0AEBUpiecewise_construct_t@std@@V?$tuple@AEBV?$basic_string@DU?$char_traits@D@std@@V?$allocator@D@2@@std@@@1@V?$tuple@$$V@1@@?$_Tree_temp_node@V?$allocator@U?$_Tree_node@U?$pair@$$CBV?$basic_string@DU?$char_traits@D@std@@V?$allocator@D@2@@std@@H@std@@PEAX@std@@@std@@@std@@QEAA@AEAV?$allocator@U?$_Tree_node@U?$pair@$$CBV?$basic_string@DU?$char_traits@D@std@@V?$allocator@D@2@@std@@H@std@@PEAX@std@@@1@PEAU?$_Tree_node@U?$pair@$$CBV?$basic_string@DU?$char_traits@D@std@@V?$allocator@D@2@@std@@H@std@@PEAX@1@AEBUpiecewise_construct_t@1@$$QEAV?$tuple@AEBV?$basic_string@DU?$char_traits@D@std@@V?$allocator@D@2@@std@@@1@$$QEAV?$tuple@$$V@1@@Z
	??$?0AEBUpiecewise_construct_t@std@@V?$tuple@AEBV?$basic_string@DU?$char_traits@D@std@@V?$allocator@D@2@@std@@@1@V?$tuple@$$V@1@@?$_Tree_temp_node@V?$allocator@U?$_Tree_node@U?$pair@$$CBV?$basic_string@DU?$char_traits@D@std@@V?$allocator@D@2@@std@@PEAUggml_tensor@@@std@@PEAX@std@@@std@@@std@@QEAA@AEAV?$allocator@U?$_Tree_node@U?$pair@$$CBV?$basic_string@DU?$char_traits@D@std@@V?$allocator@D@2@@std@@PEAUggml_tensor@@@std@@PEAX@std@@@1@PEAU?$_Tree_node@U?$pair@$$CBV?$basic_string@DU?$char_traits@D@std@@V?$allocator@D@2@@std@@PEAUggml_tensor@@@std@@PEAX@1@AEBUpiecewise_construct_t@1@$$QEAV?$tuple@AEBV?$basic_string@DU?$char_traits@D@std@@V?$allocator@D@2@@std@@@1@$$QEAV?$tuple@$$V@1@@Z
	??$?0AEBV?$allocator@D@std@@$$V@?$_Compressed_pair@V?$allocator@D@std@@V?$_String_val@U?$_Simple_types@D@std@@@2@$00@std@@QEAA@U_One_then_variadic_args_t@1@AEBV?$allocator@D@1@@Z
	??$?0AEBV?$allocator@D@std@@$$V@?$_Compressed_pair@V?$allocator@D@std@@V?$_Vector_val@U?$_Simple_types@D@std@@@2@$00@std@@QEAA@U_One_then_variadic_args_t@1@AEBV?$allocator@D@1@@Z
	??$?0AEBV?$allocator@M@std@@$$V@?$_Compressed_pair@V?$allocator@M@std@@V?$_Vector_val@U?$_Simple_types@M@std@@@2@$00@std@@QEAA@U_One_then_variadic_args_t@1@AEBV?$allocator@M@1@@Z
	??$?0AEBV?$allocator@Vthread@std@@@std@@$$V@?$_Compressed_pair@V?$allocator@Vthread@std@@@std@@V?$_Vector_val@U?$_Simple_types@Vthread@std@@@std@@@2@$00@std@@QEAA@U_One_then_variadic_args_t@1@AEBV?$allocator@Vthread@std@@@1@@Z
	??$?0AEBV?$basic_string@DU?$char_traits@D@std@@V?$allocator@D@2@@std@@$$Z$$V@?$pair@$$CBV?$basic_string@DU?$char_traits@D@std@@V?$allocator@D@2@@std@@H@std@@QEAA@Upiecewise_construct_t@1@V?$tuple@AEBV?$basic_string@DU?$char_traits@D@std@@V?$allocator@D@2@@std@@@1@V?$tuple@$$V@1@@Z
	??$?0AEBV?$basic_string@DU?$char_traits@D@std@@V?$allocator@D@2@@std@@$$Z$$V@?$pair@$$CBV?$basic_string@DU?$char_traits@D@std@@V?$allocator@D@2@@std@@PEAUggml_tensor@@@std@@QEAA@Upiecewise_construct_t@1@V?$tuple@AEBV?$basic_string@DU?$char_traits@D@std@@V?$allocator@D@2@@std@@@1@V?$tuple@$$V@1@@Z
	??$?0AEBV?$basic_string@DU?$char_traits@D@std@@V?$allocator@D@2@@std@@$0A@@?$tuple@AEBV?$basic_string@DU?$char_traits@D@std@@V?$allocator@D@2@@std@@@std@@QEAA@AEBV?$basic_string@DU?$char_traits@D@std@@V?$allocator@D@2@@1@@Z
	??$?0AEBV?$basic_string@DU?$char_traits@D@std@@V?$allocator@D@2@@std@@@?$_Tuple_val@AEBV?$basic_string@DU?$char_traits@D@std@@V?$allocator@D@2@@std@@@std@@QEAA@AEBV?$basic_string@DU?$char_traits@D@std@@V?$allocator@D@2@@1@@Z
	??$?0AEBV?$vector@MV?$allocator@M@std@@@std@@$0A@@?$reference_wrapper@$$CBV?$vector@MV?$allocator@M@std@@@std@@@std@@QEAA@AEBV?$vector@MV?$allocator@M@std@@@1@@Z
	??$?0PEAU?$_Tree_node@U?$pair@$$CBHV?$basic_string@DU?$char_traits@D@std@@V?$allocator@D@2@@std@@@std@@PEAX@std@@_N$0A@@?$pair@PEAU?$_Tree_node@U?$pair@$$CBHV?$basic_string@DU?$char_traits@D@std@@V?$allocator@D@2@@std@@@std@@PEAX@std@@_N@std@@QEAA@$$QEAPEAU?$_Tree_node@U?$pair@$$CBHV?$basic_string@DU?$char_traits@D@std@@V?$allocator@D@2@@std@@@std@@PEAX@1@$$QEA_N@Z
	??$?0PEAU?$_Tree_node@U?$pair@$$CBV?$basic_string@DU?$char_traits@D@std@@V?$allocator@D@2@@std@@H@std@@PEAX@std@@_N$0A@@?$pair@PEAU?$_Tree_node@U?$pair@$$CBV?$basic_string@DU?$char_traits@D@std@@V?$allocator@D@2@@std@@H@std@@PEAX@std@@_N@std@@QEAA@$$QEAPEAU?$_Tree_node@U?$pair@$$CBV?$basic_string@DU?$char_traits@D@std@@V?$allocator@D@2@@std@@H@std@@PEAX@1@$$QEA_N@Z
	??$?0PEAU?$_Tree_node@U?$pair@$$CBV?$basic_string@DU?$char_traits@D@std@@V?$allocator@D@2@@std@@PEAUggml_tensor@@@std@@PEAX@std@@_N$0A@@?$pair@PEAU?$_Tree_node@U?$pair@$$CBV?$basic_string@DU?$char_traits@D@std@@V?$allocator@D@2@@std@@PEAUggml_tensor@@@std@@PEAX@std@@_N@std@@QEAA@$$QEAPEAU?$_Tree_node@U?$pair@$$CBV?$basic_string@DU?$char_traits@D@std@@V?$allocator@D@2@@std@@PEAUggml_tensor@@@std@@PEAX@1@$$QEA_N@Z
	??$?0PEAU?$_Tree_node@U?$pair@QEAUggml_backend_buffer_type@@PEAUggml_context@@@std@@PEAX@std@@_N$0A@@?$pair@PEAU?$_Tree_node@U?$pair@QEAUggml_backend_buffer_type@@PEAUggml_context@@@std@@PEAX@std@@_N@std@@QEAA@$$QEAPEAU?$_Tree_node@U?$pair@QEAUggml_backend_buffer_type@@PEAUggml_context@@@std@@PEAX@1@$$QEA_N@Z
	??$?0PEBM$0A@@?$vector@MV?$allocator@M@std@@@std@@QEAA@PEBM0AEBV?$allocator@M@1@@Z
	??$?0U?$default_delete@V?$tuple@P6AXUmel_worker_params@@PEBMAEBV?$vector@MV?$allocator@M@std@@@std@@AEBUparakeet_filters@@AEAUparakeet_mel@@AEBUparakeet_mel_cache@@@ZU1@PEBMV?$reference_wrapper@$$CBV?$vector@MV?$allocator@M@std@@@std@@@3@V?$reference_wrapper@$$CBUparakeet_filters@@@3@V?$reference_wrapper@Uparakeet_mel@@@3@V?$reference_wrapper@$$CBUparakeet_mel_cache@@@3@@std@@@std@@$0A@@?$unique_ptr@V?$tuple@P6AXUmel_worker_params@@PEBMAEBV?$vector@MV?$allocator@M@std@@@std@@AEBUparakeet_filters@@AEAUparakeet_mel@@AEBUparakeet_mel_cache@@@ZU1@PEBMV?$reference_wrapper@$$CBV?$vector@MV?$allocator@M@std@@@std@@@3@V?$reference_wrapper@$$CBUparakeet_filters@@@3@V?$reference_wrapper@Uparakeet_mel@@@3@V?$reference_wrapper@$$CBUparakeet_mel_cache@@@3@@std@@U?$default_delete@V?$tuple@P6AXUmel_worker_params@@PEBMAEBV?$vector@MV?$allocator@M@std@@@std@@AEBUparakeet_filters@@AEAUparakeet_mel@@AEBUparakeet_mel_cache@@@ZU1@PEBMV?$reference_wrapper@$$CBV?$vector@MV?$allocator@M@std@@@std@@@3@V?$reference_wrapper@$$CBUparakeet_filters@@@3@V?$reference_wrapper@Uparakeet_mel@@@3@V?$reference_wrapper@$$CBUparakeet_mel_cache@@@3@@std@@@2@@std@@QEAA@$$QEAV01@@Z
	??$?0U?$default_delete@V?$tuple@P6AXUmel_worker_params@@PEBMAEBV?$vector@MV?$allocator@M@std@@@std@@AEBUparakeet_filters@@AEAUparakeet_mel@@AEBUparakeet_mel_cache@@@ZU1@PEBMV?$reference_wrapper@$$CBV?$vector@MV?$allocator@M@std@@@std@@@3@V?$reference_wrapper@$$CBUparakeet_filters@@@3@V?$reference_wrapper@Uparakeet_mel@@@3@V?$reference_wrapper@$$CBUparakeet_mel_cache@@@3@@std@@@std@@$0A@@?$unique_ptr@V?$tuple@P6AXUmel_worker_params@@PEBMAEBV?$vector@MV?$allocator@M@std@@@std@@AEBUparakeet_filters@@AEAUparakeet_mel@@AEBUparakeet_mel_cache@@@ZU1@PEBMV?$reference_wrapper@$$CBV?$vector@MV?$allocator@M@std@@@std@@@3@V?$reference_wrapper@$$CBUparakeet_filters@@@3@V?$reference_wrapper@Uparakeet_mel@@@3@V?$reference_wrapper@$$CBUparakeet_mel_cache@@@3@@std@@U?$default_delete@V?$tuple@P6AXUmel_worker_params@@PEBMAEBV?$vector@MV?$allocator@M@std@@@std@@AEBUparakeet_filters@@AEAUparakeet_mel@@AEBUparakeet_mel_cache@@@ZU1@PEBMV?$reference_wrapper@$$CBV?$vector@MV?$allocator@M@std@@@std@@@3@V?$reference_wrapper@$$CBUparakeet_filters@@@3@V?$reference_wrapper@Uparakeet_mel@@@3@V?$reference_wrapper@$$CBUparakeet_mel_cache@@@3@@std@@@2@@std@@QEAA@PEAV?$tuple@P6AXUmel_worker_params@@PEBMAEBV?$vector@MV?$allocator@M@std@@@std@@AEBUparakeet_filters@@AEAUparakeet_mel@@AEBUparakeet_mel_cache@@@ZU1@PEBMV?$reference_wrapper@$$CBV?$vector@MV?$allocator@M@std@@@std@@@3@V?$reference_wrapper@$$CBUparakeet_filters@@@3@V?$reference_wrapper@Uparakeet_mel@@@3@V?$reference_wrapper@$$CBUparakeet_mel_cache@@@3@@1@@Z
	??$?0U?$default_delete@V?$tuple@P6AXUmel_worker_params@@PEBMAEBV?$vector@MV?$allocator@M@std@@@std@@AEBUparakeet_filters@@AEAUparakeet_mel@@AEBUparakeet_mel_cache@@@ZU1@PEBMV?$reference_wrapper@$$CBV?$vector@MV?$allocator@M@std@@@std@@@3@V?$reference_wrapper@$$CBUparakeet_filters@@@3@V?$reference_wrapper@Uparakeet_mel@@@3@V?$reference_wrapper@$$CBUparakeet_mel_cache@@@3@@std@@@std@@PEAV?$tuple@P6AXUmel_worker_params@@PEBMAEBV?$vector@MV?$allocator@M@std@@@std@@AEBUparakeet_filters@@AEAUparakeet_mel@@AEBUparakeet_mel_cache@@@ZU1@PEBMV?$reference_wrapper@$$CBV?$vector@MV?$allocator@M@std@@@std@@@3@V?$reference_wrapper@$$CBUparakeet_filters@@@3@V?$reference_wrapper@Uparakeet_mel@@@3@V?$reference_wrapper@$$CBUparakeet_mel_cache@@@3@@1@@?$_Compressed_pair@U?$default_delete@V?$tuple@P6AXUmel_worker_params@@PEBMAEBV?$vector@MV?$allocator@M@std@@@std@@AEBUparakeet_filters@@AEAUparakeet_mel@@AEBUparakeet_mel_cache@@@ZU1@PEBMV?$reference_wrapper@$$CBV?$vector@MV?$allocator@M@std@@@std@@@3@V?$reference_wrapper@$$CBUparakeet_filters@@@3@V?$reference_wrapper@Uparakeet_mel@@@3@V?$reference_wrapper@$$CBUparakeet_mel_cache@@@3@@std@@@std@@PEAV?$tuple@P6AXUmel_worker_params@@PEBMAEBV?$vector@MV?$allocator@M@std@@@std@@AEBUparakeet_filters@@AEAUparakeet_mel@@AEBUparakeet_mel_cache@@@ZU1@PEBMV?$reference_wrapper@$$CBV?$vector@MV?$allocator@M@std@@@std@@@3@V?$reference_wrapper@$$CBUparakeet_filters@@@3@V?$reference_wrapper@Uparakeet_mel@@@3@V?$reference_wrapper@$$CBUparakeet_mel_cache@@@3@@2@$00@std@@QEAA@U_One_then_variadic_args_t@1@$$QEAU?$default_delete@V?$tuple@P6AXUmel_worker_params@@PEBMAEBV?$vector@MV?$allocator@M@std@@@std@@AEBUparakeet_filters@@AEAUparakeet_mel@@AEBUparakeet_mel_cache@@@ZU1@PEBMV?$reference_wrapper@$$CBV?$vector@MV?$allocator@M@std@@@std@@@3@V?$reference_wrapper@$$CBUparakeet_filters@@@3@V?$reference_wrapper@Uparakeet_mel@@@3@V?$reference_wrapper@$$CBUparakeet_mel_cache@@@3@@std@@@1@$$QEAPEAV?$tuple@P6AXUmel_worker_params@@PEBMAEBV?$vector@MV?$allocator@M@std@@@std@@AEBUparakeet_filters@@AEAUparakeet_mel@@AEBUparakeet_mel_cache@@@ZU1@PEBMV?$reference_wrapper@$$CBV?$vector@MV?$allocator@M@std@@@std@@@3@V?$reference_wrapper@$$CBUparakeet_filters@@@3@V?$reference_wrapper@Uparakeet_mel@@@3@V?$reference_wrapper@$$CBUparakeet_mel_cache@@@3@@1@@Z
	??$?0U?$default_delete@V_Facet_base@std@@@std@@$0A@@?$unique_ptr@V_Facet_base@std@@U?$default_delete@V_Facet_base@std@@@2@@std@@QEAA@PEAV_Facet_base@1@@Z
	??$?0U_Exact_args_t@std@@$0A@@?$tuple@$$V@std@@QEAA@U_Exact_args_t@1@@Z
	??$?0U_Exact_args_t@std@@A6AXUmel_worker_params@@PEBMAEBV?$vector@MV?$allocator@M@std@@@1@AEBUparakeet_filters@@AEAUparakeet_mel@@AEBUparakeet_mel_cache@@@ZAEAU2@AEAPEBMV?$reference_wrapper@$$CBV?$vector@MV?$allocator@M@std@@@std@@@1@V?$reference_wrapper@$$CBUparakeet_filters@@@1@V?$reference_wrapper@Uparakeet_mel@@@1@V?$reference_wrapper@$$CBUparakeet_mel_cache@@@1@$0A@@?$tuple@P6AXUmel_worker_params@@PEBMAEBV?$vector@MV?$allocator@M@std@@@std@@AEBUparakeet_filters@@AEAUparakeet_mel@@AEBUparakeet_mel_cache@@@ZU1@PEBMV?$reference_wrapper@$$CBV?$vector@MV?$allocator@M@std@@@std@@@3@V?$reference_wrapper@$$CBUparakeet_filters@@@3@V?$reference_wrapper@Uparakeet_mel@@@3@V?$reference_wrapper@$$CBUparakeet_mel_cache@@@3@@std@@QEAA@U_Exact_args_t@1@A6AXUmel_worker_params@@PEBMAEBV?$vector@MV?$allocator@M@std@@@1@AEBUparakeet_filters@@AEAUparakeet_mel@@AEBUparakeet_mel_cache@@@ZAEAU3@AEAPEBM$$QEAV?$reference_wrapper@$$CBV?$vector@MV?$allocator@M@std@@@std@@@1@$$QEAV?$reference_wrapper@$$CBUparakeet_filters@@@1@$$QEAV?$reference_wrapper@Uparakeet_mel@@@1@$$QEAV?$reference_wrapper@$$CBUparakeet_mel_cache@@@1@@Z
	??$?0U_Exact_args_t@std@@AEAPEBMV?$reference_wrapper@$$CBV?$vector@MV?$allocator@M@std@@@std@@@1@V?$reference_wrapper@$$CBUparakeet_filters@@@1@V?$reference_wrapper@Uparakeet_mel@@@1@V?$reference_wrapper@$$CBUparakeet_mel_cache@@@1@$0A@@?$tuple@PEBMV?$reference_wrapper@$$CBV?$vector@MV?$allocator@M@std@@@std@@@std@@V?$reference_wrapper@$$CBUparakeet_filters@@@2@V?$reference_wrapper@Uparakeet_mel@@@2@V?$reference_wrapper@$$CBUparakeet_mel_cache@@@2@@std@@QEAA@U_Exact_args_t@1@AEAPEBM$$QEAV?$reference_wrapper@$$CBV?$vector@MV?$allocator@M@std@@@std@@@1@$$QEAV?$reference_wrapper@$$CBUparakeet_filters@@@1@$$QEAV?$reference_wrapper@Uparakeet_mel@@@1@$$QEAV?$reference_wrapper@$$CBUparakeet_mel_cache@@@1@@Z
	??$?0U_Exact_args_t@std@@AEAUmel_worker_params@@AEAPEBMV?$reference_wrapper@$$CBV?$vector@MV?$allocator@M@std@@@std@@@1@V?$reference_wrapper@$$CBUparakeet_filters@@@1@V?$reference_wrapper@Uparakeet_mel@@@1@V?$reference_wrapper@$$CBUparakeet_mel_cache@@@1@$0A@@?$tuple@Umel_worker_params@@PEBMV?$reference_wrapper@$$CBV?$vector@MV?$allocator@M@std@@@std@@@std@@V?$reference_wrapper@$$CBUparakeet_filters@@@3@V?$reference_wrapper@Uparakeet_mel@@@3@V?$reference_wrapper@$$CBUparakeet_mel_cache@@@3@@std@@QEAA@U_Exact_args_t@1@AEAUmel_worker_params@@AEAPEBM$$QEAV?$reference_wrapper@$$CBV?$vector@MV?$allocator@M@std@@@std@@@1@$$QEAV?$reference_wrapper@$$CBUparakeet_filters@@@1@$$QEAV?$reference_wrapper@Uparakeet_mel@@@1@$$QEAV?$reference_wrapper@$$CBUparakeet_mel_cache@@@1@@Z
	??$?0U_Exact_args_t@std@@AEBH$$V$0A@@?$tuple@AEBH@std@@QEAA@U_Exact_args_t@1@AEBH@Z
	??$?0U_Exact_args_t@std@@AEBQEAUggml_backend_buffer_type@@$$V$0A@@?$tuple@AEBQEAUggml_backend_buffer_type@@@std@@QEAA@U_Exact_args_t@1@AEBQEAUggml_backend_buffer_type@@@Z
	??$?0U_Exact_args_t@std@@AEBV?$basic_string@DU?$char_traits@D@std@@V?$allocator@D@2@@1@$$V$0A@@?$tuple@AEBV?$basic_string@DU?$char_traits@D@std@@V?$allocator@D@2@@std@@@std@@QEAA@U_Exact_args_t@1@AEBV?$basic_string@DU?$char_traits@D@std@@V?$allocator@D@2@@1@@Z
	??$?0U_Exact_args_t@std@@V?$basic_string@DU?$char_traits@D@std@@V?$allocator@D@2@@1@$$V$0A@@?$tuple@$$QEAV?$basic_string@DU?$char_traits@D@std@@V?$allocator@D@2@@std@@@std@@QEAA@U_Exact_args_t@1@$$QEAV?$basic_string@DU?$char_traits@D@std@@V?$allocator@D@2@@1@@Z
	??$?0U_Exact_args_t@std@@V?$reference_wrapper@$$CBUparakeet_filters@@@1@V?$reference_wrapper@Uparakeet_mel@@@1@V?$reference_wrapper@$$CBUparakeet_mel_cache@@@1@$0A@@?$tuple@V?$reference_wrapper@$$CBUparakeet_filters@@@std@@V?$reference_wrapper@Uparakeet_mel@@@2@V?$reference_wrapper@$$CBUparakeet_mel_cache@@@2@@std@@QEAA@U_Exact_args_t@1@$$QEAV?$reference_wrapper@$$CBUparakeet_filters@@@1@$$QEAV?$reference_wrapper@Uparakeet_mel@@@1@$$QEAV?$reference_wrapper@$$CBUparakeet_mel_cache@@@1@@Z
	??$?0U_Exact_args_t@std@@V?$reference_wrapper@$$CBUparakeet_mel_cache@@@1@$$V$0A@@?$tuple@V?$reference_wrapper@$$CBUparakeet_mel_cache@@@std@@@std@@QEAA@U_Exact_args_t@1@$$QEAV?$reference_wrapper@$$CBUparakeet_mel_cache@@@1@@Z
	??$?0U_Exact_args_t@std@@V?$reference_wrapper@$$CBV?$vector@MV?$allocator@M@std@@@std@@@1@V?$reference_wrapper@$$CBUparakeet_filters@@@1@V?$reference_wrapper@Uparakeet_mel@@@1@V?$reference_wrapper@$$CBUparakeet_mel_cache@@@1@$0A@@?$tuple@V?$reference_wrapper@$$CBV?$vector@MV?$allocator@M@std@@@std@@@std@@V?$reference_wrapper@$$CBUparakeet_filters@@@2@V?$reference_wrapper@Uparakeet_mel@@@2@V?$reference_wrapper@$$CBUparakeet_mel_cache@@@2@@std@@QEAA@U_Exact_args_t@1@$$QEAV?$reference_wrapper@$$CBV?$vector@MV?$allocator@M@std@@@std@@@1@$$QEAV?$reference_wrapper@$$CBUparakeet_filters@@@1@$$QEAV?$reference_wrapper@Uparakeet_mel@@@1@$$QEAV?$reference_wrapper@$$CBUparakeet_mel_cache@@@1@@Z
	??$?0U_Exact_args_t@std@@V?$reference_wrapper@Uparakeet_mel@@@1@V?$reference_wrapper@$$CBUparakeet_mel_cache@@@1@$0A@@?$tuple@V?$reference_wrapper@Uparakeet_mel@@@std@@V?$reference_wrapper@$$CBUparakeet_mel_cache@@@2@@std@@QEAA@U_Exact_args_t@1@$$QEAV?$reference_wrapper@Uparakeet_mel@@@1@$$QEAV?$reference_wrapper@$$CBUparakeet_mel_cache@@@1@@Z
	??$?0Uggml_context_deleter@@$0A@@?$unique_ptr@Uggml_context@@Uggml_context_deleter@@@std@@QEAA@PEAUggml_context@@@Z
	??$?0V?$allocator@D@std@@$$V@?$_Compressed_pair@V?$allocator@D@std@@V?$_String_val@U?$_Simple_types@D@std@@@2@$00@std@@QEAA@U_One_then_variadic_args_t@1@$$QEAV?$allocator@D@1@@Z
	??$?0V?$allocator@H@std@@PEAHPEAHPEAH@?$_Compressed_pair@V?$allocator@H@std@@V?$_Vector_val@U?$_Simple_types@H@std@@@2@$00@std@@QEAA@U_One_then_variadic_args_t@1@$$QEAV?$allocator@H@1@$$QEAPEAH22@Z
	??$?0V?$allocator@PEAUggml_backend@@@std@@$$V@?$_Compressed_pair@V?$allocator@PEAUggml_backend@@@std@@V?$_Vector_val@U?$_Simple_types@PEAUggml_backend@@@std@@@2@$00@std@@QEAA@U_One_then_variadic_args_t@1@$$QEAV?$allocator@PEAUggml_backend@@@1@@Z
	??$?0V?$allocator@PEAUggml_backend@@@std@@PEAPEAUggml_backend@@PEAPEAU2@PEAPEAU2@@?$_Compressed_pair@V?$allocator@PEAUggml_backend@@@std@@V?$_Vector_val@U?$_Simple_types@PEAUggml_backend@@@std@@@2@$00@std@@QEAA@U_One_then_variadic_args_t@1@$$QEAV?$allocator@PEAUggml_backend@@@1@$$QEAPEAPEAUggml_backend@@22@Z
	??$?0V?$allocator@U?$pair@PEAUggml_backend_device@@PEAUggml_backend_buffer_type@@@std@@@std@@$$V@?$_Compressed_pair@V?$allocator@U?$pair@PEAUggml_backend_device@@PEAUggml_backend_buffer_type@@@std@@@std@@V?$_Vector_val@U?$_Simple_types@U?$pair@PEAUggml_backend_device@@PEAUggml_backend_buffer_type@@@std@@@std@@@2@$00@std@@QEAA@U_One_then_variadic_args_t@1@$$QEAV?$allocator@U?$pair@PEAUggml_backend_device@@PEAUggml_backend_buffer_type@@@std@@@1@@Z
	??$?0V?$allocator@U?$pair@PEAUggml_backend_device@@PEAUggml_backend_buffer_type@@@std@@@std@@PEAU?$pair@PEAUggml_backend_device@@PEAUggml_backend_buffer_type@@@1@PEAU21@PEAU21@@?$_Compressed_pair@V?$allocator@U?$pair@PEAUggml_backend_device@@PEAUggml_backend_buffer_type@@@std@@@std@@V?$_Vector_val@U?$_Simple_types@U?$pair@PEAUggml_backend_device@@PEAUggml_backend_buffer_type@@@std@@@std@@@2@$00@std@@QEAA@U_One_then_variadic_args_t@1@$$QEAV?$allocator@U?$pair@PEAUggml_backend_device@@PEAUggml_backend_buffer_type@@@std@@@1@$$QEAPEAU?$pair@PEAUggml_backend_device@@PEAUggml_backend_buffer_type@@@1@22@Z
	??$?0V?$allocator@Uparakeet_token_data@@@std@@PEAUparakeet_token_data@@PEAU2@PEAU2@@?$_Compressed_pair@V?$allocator@Uparakeet_token_data@@@std@@V?$_Vector_val@U?$_Simple_types@Uparakeet_token_data@@@std@@@2@$00@std@@QEAA@U_One_then_variadic_args_t@1@$$QEAV?$allocator@Uparakeet_token_data@@@1@$$QEAPEAUparakeet_token_data@@22@Z
	??$?0V?$allocator@_W@std@@$$V@?$_Compressed_pair@V?$allocator@_W@std@@V?$_String_val@U?$_Simple_types@_W@std@@@2@$00@std@@QEAA@U_One_then_variadic_args_t@1@$$QEAV?$allocator@_W@1@@Z
	??$?0V?$basic_string@DU?$char_traits@D@std@@V?$allocator@D@2@@std@@$$V$0A@@?$tuple@$$QEAV?$basic_string@DU?$char_traits@D@std@@V?$allocator@D@2@@std@@@std@@QEAA@$$QEAV?$basic_string@DU?$char_traits@D@std@@V?$allocator@D@2@@1@@Z
	??$?0V?$basic_string@DU?$char_traits@D@std@@V?$allocator@D@2@@std@@@?$_Tuple_val@$$QEAV?$basic_string@DU?$char_traits@D@std@@V?$allocator@D@2@@std@@@std@@QEAA@$$QEAV?$basic_string@DU?$char_traits@D@std@@V?$allocator@D@2@@1@@Z
	??$?0V?$codecvt_utf8@_W$0BAPPPP@$0A@@std@@@locale@std@@QEAA@AEBV01@PEBV?$codecvt_utf8@_W$0BAPPPP@$0A@@1@@Z
	??$?0V?$reference_wrapper@$$CBUparakeet_filters@@@std@@@?$_Tuple_val@V?$reference_wrapper@$$CBUparakeet_filters@@@std@@@std@@QEAA@$$QEAV?$reference_wrapper@$$CBUparakeet_filters@@@1@@Z
	??$?0V?$reference_wrapper@$$CBUparakeet_mel_cache@@@std@@@?$_Tuple_val@V?$reference_wrapper@$$CBUparakeet_mel_cache@@@std@@@std@@QEAA@$$QEAV?$reference_wrapper@$$CBUparakeet_mel_cache@@@1@@Z
	??$?0V?$reference_wrapper@$$CBV?$vector@MV?$allocator@M@std@@@std@@@std@@@?$_Tuple_val@V?$reference_wrapper@$$CBV?$vector@MV?$allocator@M@std@@@std@@@std@@@std@@QEAA@$$QEAV?$reference_wrapper@$$CBV?$vector@MV?$allocator@M@std@@@std@@@1@@Z
	??$?0V?$reference_wrapper@Uparakeet_mel@@@std@@@?$_Tuple_val@V?$reference_wrapper@Uparakeet_mel@@@std@@@std@@QEAA@$$QEAV?$reference_wrapper@Uparakeet_mel@@@1@@Z
	??$?0V?$tuple@$$QEAV?$basic_string@DU?$char_traits@D@std@@V?$allocator@D@2@@std@@@std@@V?$tuple@$$V@1@$0A@$$Z$S@?$pair@$$CBV?$basic_string@DU?$char_traits@D@std@@V?$allocator@D@2@@std@@H@std@@AEAA@AEAV?$tuple@$$QEAV?$basic_string@DU?$char_traits@D@std@@V?$allocator@D@2@@std@@@1@AEAV?$tuple@$$V@1@U?$integer_sequence@_K$0A@@1@U?$integer_sequence@_K$S@1@@Z
	??$?0V?$tuple@$$QEAV?$basic_string@DU?$char_traits@D@std@@V?$allocator@D@2@@std@@@std@@V?$tuple@$$V@1@$0A@$$Z$S@?$pair@$$CBV?$basic_string@DU?$char_traits@D@std@@V?$allocator@D@2@@std@@PEAUggml_tensor@@@std@@AEAA@AEAV?$tuple@$$QEAV?$basic_string@DU?$char_traits@D@std@@V?$allocator@D@2@@std@@@1@AEAV?$tuple@$$V@1@U?$integer_sequence@_K$0A@@1@U?$integer_sequence@_K$S@1@@Z
	??$?0V?$tuple@AEBH@std@@V?$tuple@$$V@1@$0A@$$Z$S@?$pair@$$CBHV?$basic_string@DU?$char_traits@D@std@@V?$allocator@D@2@@std@@@std@@AEAA@AEAV?$tuple@AEBH@1@AEAV?$tuple@$$V@1@U?$integer_sequence@_K$0A@@1@U?$integer_sequence@_K$S@1@@Z
	??$?0V?$tuple@AEBQEAUggml_backend_buffer_type@@@std@@V?$tuple@$$V@1@$0A@$$Z$S@?$pair@QEAUggml_backend_buffer_type@@PEAUggml_context@@@std@@AEAA@AEAV?$tuple@AEBQEAUggml_backend_buffer_type@@@1@AEAV?$tuple@$$V@1@U?$integer_sequence@_K$0A@@1@U?$integer_sequence@_K$S@1@@Z
	??$?0V?$tuple@AEBV?$basic_string@DU?$char_traits@D@std@@V?$allocator@D@2@@std@@@std@@V?$tuple@$$V@1@$0A@$$Z$S@?$pair@$$CBV?$basic_string@DU?$char_traits@D@std@@V?$allocator@D@2@@std@@H@std@@AEAA@AEAV?$tuple@AEBV?$basic_string@DU?$char_traits@D@std@@V?$allocator@D@2@@std@@@1@AEAV?$tuple@$$V@1@U?$integer_sequence@_K$0A@@1@U?$integer_sequence@_K$S@1@@Z
	??$?0V?$tuple@AEBV?$basic_string@DU?$char_traits@D@std@@V?$allocator@D@2@@std@@@std@@V?$tuple@$$V@1@$0A@$$Z$S@?$pair@$$CBV?$basic_string@DU?$char_traits@D@std@@V?$allocator@D@2@@std@@PEAUggml_tensor@@@std@@AEAA@AEAV?$tuple@AEBV?$basic_string@DU?$char_traits@D@std@@V?$allocator@D@2@@std@@@1@AEAV?$tuple@$$V@1@U?$integer_sequence@_K$0A@@1@U?$integer_sequence@_K$S@1@@Z
	??$?0W4parakeet_tensor@@AEAY0BA@$$CBD$0A@@?$pair@$$CBW4parakeet_tensor@@PEBD@std@@QEAA@$$QEAW4parakeet_tensor@@AEAY0BA@$$CBD@Z
	??$?0W4parakeet_tensor@@AEAY0BB@$$CBD$0A@@?$pair@$$CBW4parakeet_tensor@@PEBD@std@@QEAA@$$QEAW4parakeet_tensor@@AEAY0BB@$$CBD@Z
	??$?0W4parakeet_tensor@@AEAY0BC@$$CBD$0A@@?$pair@$$CBW4parakeet_tensor@@PEBD@std@@QEAA@$$QEAW4parakeet_tensor@@AEAY0BC@$$CBD@Z
	??$?0W4parakeet_tensor@@AEAY0BH@$$CBD$0A@@?$pair@$$CBW4parakeet_tensor@@PEBD@std@@QEAA@$$QEAW4parakeet_tensor@@AEAY0BH@$$CBD@Z
	??$?0W4parakeet_tensor@@AEAY0BJ@$$CBD$0A@@?$pair@$$CBW4parakeet_tensor@@PEBD@std@@QEAA@$$QEAW4parakeet_tensor@@AEAY0BJ@$$CBD@Z
	??$?0W4parakeet_tensor@@AEAY0BM@$$CBD$0A@@?$pair@$$CBW4parakeet_tensor@@PEBD@std@@QEAA@$$QEAW4parakeet_tensor@@AEAY0BM@$$CBD@Z
	??$?0W4parakeet_tensor@@AEAY0BO@$$CBD$0A@@?$pair@$$CBW4parakeet_tensor@@PEBD@std@@QEAA@$$QEAW4parakeet_tensor@@AEAY0BO@$$CBD@Z
	??$?0W4parakeet_tensor@@AEAY0BP@$$CBD$0A@@?$pair@$$CBW4parakeet_tensor@@PEBD@std@@QEAA@$$QEAW4parakeet_tensor@@AEAY0BP@$$CBD@Z
	??$?0W4parakeet_tensor@@AEAY0CA@$$CBD$0A@@?$pair@$$CBW4parakeet_tensor@@PEBD@std@@QEAA@$$QEAW4parakeet_tensor@@AEAY0CA@$$CBD@Z
	??$?0W4parakeet_tensor@@AEAY0CB@$$CBD$0A@@?$pair@$$CBW4parakeet_tensor@@PEBD@std@@QEAA@$$QEAW4parakeet_tensor@@AEAY0CB@$$CBD@Z
	??$?0W4parakeet_tensor@@AEAY0CC@$$CBD$0A@@?$pair@$$CBW4parakeet_tensor@@PEBD@std@@QEAA@$$QEAW4parakeet_tensor@@AEAY0CC@$$CBD@Z
	??$?0W4parakeet_tensor@@AEAY0CD@$$CBD$0A@@?$pair@$$CBW4parakeet_tensor@@PEBD@std@@QEAA@$$QEAW4parakeet_tensor@@AEAY0CD@$$CBD@Z
	??$?0W4parakeet_tensor@@AEAY0CF@$$CBD$0A@@?$pair@$$CBW4parakeet_tensor@@PEBD@std@@QEAA@$$QEAW4parakeet_tensor@@AEAY0CF@$$CBD@Z
	??$?0W4parakeet_tensor@@AEAY0CH@$$CBD$0A@@?$pair@$$CBW4parakeet_tensor@@PEBD@std@@QEAA@$$QEAW4parakeet_tensor@@AEAY0CH@$$CBD@Z
	??$?0W4parakeet_tensor@@AEAY0CJ@$$CBD$0A@@?$pair@$$CBW4parakeet_tensor@@PEBD@std@@QEAA@$$QEAW4parakeet_tensor@@AEAY0CJ@$$CBD@Z
	??$?0W4parakeet_tensor@@AEAY0CK@$$CBD$0A@@?$pair@$$CBW4parakeet_tensor@@PEBD@std@@QEAA@$$QEAW4parakeet_tensor@@AEAY0CK@$$CBD@Z
	??$?0W4parakeet_tensor@@AEAY0CL@$$CBD$0A@@?$pair@$$CBW4parakeet_tensor@@PEBD@std@@QEAA@$$QEAW4parakeet_tensor@@AEAY0CL@$$CBD@Z
	??$?0W4parakeet_tensor@@AEAY0CM@$$CBD$0A@@?$pair@$$CBW4parakeet_tensor@@PEBD@std@@QEAA@$$QEAW4parakeet_tensor@@AEAY0CM@$$CBD@Z
	??$?0W4parakeet_tensor@@AEAY0CN@$$CBD$0A@@?$pair@$$CBW4parakeet_tensor@@PEBD@std@@QEAA@$$QEAW4parakeet_tensor@@AEAY0CN@$$CBD@Z
	??$?0W4parakeet_tensor@@AEAY0CO@$$CBD$0A@@?$pair@$$CBW4parakeet_tensor@@PEBD@std@@QEAA@$$QEAW4parakeet_tensor@@AEAY0CO@$$CBD@Z
	??$?0W4parakeet_tensor@@AEAY0CP@$$CBD$0A@@?$pair@$$CBW4parakeet_tensor@@PEBD@std@@QEAA@$$QEAW4parakeet_tensor@@AEAY0CP@$$CBD@Z
	??$?0W4parakeet_tensor@@AEAY0DG@$$CBD$0A@@?$pair@$$CBW4parakeet_tensor@@PEBD@std@@QEAA@$$QEAW4parakeet_tensor@@AEAY0DG@$$CBD@Z
	??$?0W4parakeet_tensor@@AEAY0P@$$CBD$0A@@?$pair@$$CBW4parakeet_tensor@@PEBD@std@@QEAA@$$QEAW4parakeet_tensor@@AEAY0P@$$CBD@Z
	??$?0W4parakeet_tensor@@W4ggml_op@@$0A@@?$pair@$$CBW4parakeet_tensor@@W4ggml_op@@@std@@QEAA@$$QEAW4parakeet_tensor@@$$QEAW4ggml_op@@@Z
	??$?6U?$char_traits@D@std@@@std@@YAAEAV?$basic_ostream@DU?$char_traits@D@std@@@0@AEAV10@PEBD@Z
	??$?8DU?$char_traits@D@std@@V?$allocator@D@1@@std@@YA_NAEBV?$basic_string@DU?$char_traits@D@std@@V?$allocator@D@2@@0@QEBD@Z
	??$?MDU?$char_traits@D@std@@V?$allocator@D@1@@std@@YA_NAEBV?$basic_string@DU?$char_traits@D@std@@V?$allocator@D@2@@0@0@Z
	??$?RAEBHAEBH@?$less@X@std@@QEBA_NAEBH0@Z
	??$_Adl_verify_range@PEBDPEBD@std@@YAXAEBQEBD0@Z
	??$_Adl_verify_range@PEBMPEBM@std@@YAXAEBQEBM0@Z
	??$_Adl_verify_range@V?$_Vector_iterator@V?$_Vector_val@U?$_Simple_types@M@std@@@std@@@std@@V12@@std@@YAXAEBV?$_Vector_iterator@V?$_Vector_val@U?$_Simple_types@M@std@@@std@@@0@0@Z
	??$_Allocate@$0BA@U_Default_allocate_traits@std@@@std@@YAPEAX_K@Z
	??$_Allocate_at_least_helper@V?$allocator@D@std@@@std@@YAPEADAEAV?$allocator@D@0@AEA_K@Z
	??$_Allocate_at_least_helper@V?$allocator@E@std@@@std@@YAPEAEAEAV?$allocator@E@0@AEA_K@Z
	??$_Allocate_at_least_helper@V?$allocator@H@std@@@std@@YAPEAHAEAV?$allocator@H@0@AEA_K@Z
	??$_Allocate_at_least_helper@V?$allocator@I@std@@@std@@YAPEAIAEAV?$allocator@I@0@AEA_K@Z
	??$_Allocate_at_least_helper@V?$allocator@M@std@@@std@@YAPEAMAEAV?$allocator@M@0@AEA_K@Z
	??$_Allocate_at_least_helper@V?$allocator@PEAUggml_backend@@@std@@@std@@YAPEAPEAUggml_backend@@AEAV?$allocator@PEAUggml_backend@@@0@AEA_K@Z
	??$_Allocate_at_least_helper@V?$allocator@PEAUggml_backend_buffer@@@std@@@std@@YAPEAPEAUggml_backend_buffer@@AEAV?$allocator@PEAUggml_backend_buffer@@@0@AEA_K@Z
	??$_Allocate_at_least_helper@V?$allocator@PEAUggml_context@@@std@@@std@@YAPEAPEAUggml_context@@AEAV?$allocator@PEAUggml_context@@@0@AEA_K@Z
	??$_Allocate_at_least_helper@V?$allocator@U?$pair@PEAUggml_backend_device@@PEAUggml_backend_buffer_type@@@std@@@std@@@std@@YAPEAU?$pair@PEAUggml_backend_device@@PEAUggml_backend_buffer_type@@@0@AEAV?$allocator@U?$pair@PEAUggml_backend_device@@PEAUggml_backend_buffer_type@@@std@@@0@AEA_K@Z
	??$_Allocate_at_least_helper@V?$allocator@Uparakeet_layer_encoder@@@std@@@std@@YAPEAUparakeet_layer_encoder@@AEAV?$allocator@Uparakeet_layer_encoder@@@0@AEA_K@Z
	??$_Allocate_at_least_helper@V?$allocator@Uparakeet_lsmt_layer@@@std@@@std@@YAPEAUparakeet_lsmt_layer@@AEAV?$allocator@Uparakeet_lsmt_layer@@@0@AEA_K@Z
	??$_Allocate_at_least_helper@V?$allocator@Uparakeet_lstm_state_layer@@@std@@@std@@YAPEAUparakeet_lstm_state_layer@@AEAV?$allocator@Uparakeet_lstm_state_layer@@@0@AEA_K@Z
	??$_Allocate_at_least_helper@V?$allocator@Uparakeet_segment@@@std@@@std@@YAPEAUparakeet_segment@@AEAV?$allocator@Uparakeet_segment@@@0@AEA_K@Z
	??$_Allocate_at_least_helper@V?$allocator@Uparakeet_token_data@@@std@@@std@@YAPEAUparakeet_token_data@@AEAV?$allocator@Uparakeet_token_data@@@0@AEA_K@Z
	??$_Allocate_at_least_helper@V?$allocator@Vthread@std@@@std@@@std@@YAPEAVthread@0@AEAV?$allocator@Vthread@std@@@0@AEA_K@Z
	??$_Allocate_at_least_helper@V?$allocator@_W@std@@@std@@YAPEA_WAEAV?$allocator@_W@0@AEA_K@Z
	??$_Allocate_for_capacity@$0A@@?$basic_string@DU?$char_traits@D@std@@V?$allocator@D@2@@std@@CAPEADAEAV?$allocator@D@1@AEA_K@Z
	??$_Allocate_for_capacity@$0A@@?$basic_string@_WU?$char_traits@_W@std@@V?$allocator@_W@2@@std@@CAPEA_WAEAV?$allocator@_W@1@AEA_K@Z
	??$_Allocate_manually_vector_aligned@U_Default_allocate_traits@std@@@std@@YAPEAX_K@Z
	??$_Append@D@?$basic_string@DU?$char_traits@D@std@@V?$allocator@D@2@@std@@AEAAAEAV01@QEBD_K@Z
	??$_Append@_W@?$basic_string@_WU?$char_traits@_W@std@@V?$allocator@_W@2@@std@@AEAAAEAV01@QEB_W_K@Z
	??$_Assign@D@?$basic_string@DU?$char_traits@D@std@@V?$allocator@D@2@@std@@AEAAAEAV01@QEBD_K@Z
	??$_Assign_counted_range@PEAUparakeet_token_data@@@?$vector@Uparakeet_token_data@@V?$allocator@Uparakeet_token_data@@@std@@@std@@AEAAXPEAUparakeet_token_data@@_K@Z
	??$_Buyheadnode@V?$allocator@U?$_Tree_node@U?$pair@$$CBHV?$basic_string@DU?$char_traits@D@std@@V?$allocator@D@2@@std@@@std@@PEAX@std@@@std@@@?$_Tree_node@U?$pair@$$CBHV?$basic_string@DU?$char_traits@D@std@@V?$allocator@D@2@@std@@@std@@PEAX@std@@SAPEAU01@AEAV?$allocator@U?$_Tree_node@U?$pair@$$CBHV?$basic_string@DU?$char_traits@D@std@@V?$allocator@D@2@@std@@@std@@PEAX@std@@@1@@Z
	??$_Buyheadnode@V?$allocator@U?$_Tree_node@U?$pair@$$CBV?$basic_string@DU?$char_traits@D@std@@V?$allocator@D@2@@std@@H@std@@PEAX@std@@@std@@@?$_Tree_node@U?$pair@$$CBV?$basic_string@DU?$char_traits@D@std@@V?$allocator@D@2@@std@@H@std@@PEAX@std@@SAPEAU01@AEAV?$allocator@U?$_Tree_node@U?$pair@$$CBV?$basic_string@DU?$char_traits@D@std@@V?$allocator@D@2@@std@@H@std@@PEAX@std@@@1@@Z
	??$_Buyheadnode@V?$allocator@U?$_Tree_node@U?$pair@$$CBV?$basic_string@DU?$char_traits@D@std@@V?$allocator@D@2@@std@@PEAUggml_tensor@@@std@@PEAX@std@@@std@@@?$_Tree_node@U?$pair@$$CBV?$basic_string@DU?$char_traits@D@std@@V?$allocator@D@2@@std@@PEAUggml_tensor@@@std@@PEAX@std@@SAPEAU01@AEAV?$allocator@U?$_Tree_node@U?$pair@$$CBV?$basic_string@DU?$char_traits@D@std@@V?$allocator@D@2@@std@@PEAUggml_tensor@@@std@@PEAX@std@@@1@@Z
	??$_Buyheadnode@V?$allocator@U?$_Tree_node@U?$pair@$$CBW4parakeet_tensor@@PEBD@std@@PEAX@std@@@std@@@?$_Tree_node@U?$pair@$$CBW4parakeet_tensor@@PEBD@std@@PEAX@std@@SAPEAU01@AEAV?$allocator@U?$_Tree_node@U?$pair@$$CBW4parakeet_tensor@@PEBD@std@@PEAX@std@@@1@@Z
	??$_Buyheadnode@V?$allocator@U?$_Tree_node@U?$pair@$$CBW4parakeet_tensor@@W4ggml_op@@@std@@PEAX@std@@@std@@@?$_Tree_node@U?$pair@$$CBW4parakeet_tensor@@W4ggml_op@@@std@@PEAX@std@@SAPEAU01@AEAV?$allocator@U?$_Tree_node@U?$pair@$$CBW4parakeet_tensor@@W4ggml_op@@@std@@PEAX@std@@@1@@Z
	??$_Buyheadnode@V?$allocator@U?$_Tree_node@U?$pair@QEAUggml_backend_buffer_type@@PEAUggml_context@@@std@@PEAX@std@@@std@@@?$_Tree_node@U?$pair@QEAUggml_backend_buffer_type@@PEAUggml_context@@@std@@PEAX@std@@SAPEAU01@AEAV?$allocator@U?$_Tree_node@U?$pair@QEAUggml_backend_buffer_type@@PEAUggml_context@@@std@@PEAX@std@@@1@@Z
	??$_Codecvt_do_length@V?$codecvt_utf8@_W$0BAPPPP@$0A@@std@@DU_Mbstatet@@@std@@YAHAEBV?$codecvt_utf8@_W$0BAPPPP@$0A@@0@AEAU_Mbstatet@@PEBD2_K@Z
	??$_Construct@$00PEBD@?$basic_string@DU?$char_traits@D@std@@V?$allocator@D@2@@std@@AEAAXQEBD_K@Z
	??$_Construct@$01PEBD@?$basic_string@DU?$char_traits@D@std@@V?$allocator@D@2@@std@@AEAAXQEBD_K@Z
	??$_Construct@$01PEB_W@?$basic_string@_WU?$char_traits@_W@std@@V?$allocator@_W@2@@std@@AEAAXQEB_W_K@Z
	??$_Construct_in_place@HAEBH@std@@YAXAEAHAEBH@Z
	??$_Construct_in_place@PEADAEAPEAD@std@@YAXAEAPEAD0@Z
	??$_Construct_in_place@PEADAEBQEAD@std@@YAXAEAPEADAEBQEAD@Z
	??$_Construct_in_place@PEAU?$_Tree_node@U?$pair@$$CBHV?$basic_string@DU?$char_traits@D@std@@V?$allocator@D@2@@std@@@std@@PEAX@std@@AEAPEAU12@@std@@YAXAEAPEAU?$_Tree_node@U?$pair@$$CBHV?$basic_string@DU?$char_traits@D@std@@V?$allocator@D@2@@std@@@std@@PEAX@0@0@Z
	??$_Construct_in_place@PEAU?$_Tree_node@U?$pair@$$CBHV?$basic_string@DU?$char_traits@D@std@@V?$allocator@D@2@@std@@@std@@PEAX@std@@AEBQEAU12@@std@@YAXAEAPEAU?$_Tree_node@U?$pair@$$CBHV?$basic_string@DU?$char_traits@D@std@@V?$allocator@D@2@@std@@@std@@PEAX@0@AEBQEAU10@@Z
	??$_Construct_in_place@PEAU?$_Tree_node@U?$pair@$$CBV?$basic_string@DU?$char_traits@D@std@@V?$allocator@D@2@@std@@H@std@@PEAX@std@@AEAPEAU12@@std@@YAXAEAPEAU?$_Tree_node@U?$pair@$$CBV?$basic_string@DU?$char_traits@D@std@@V?$allocator@D@2@@std@@H@std@@PEAX@0@0@Z
	??$_Construct_in_place@PEAU?$_Tree_node@U?$pair@$$CBV?$basic_string@DU?$char_traits@D@std@@V?$allocator@D@2@@std@@H@std@@PEAX@std@@AEBQEAU12@@std@@YAXAEAPEAU?$_Tree_node@U?$pair@$$CBV?$basic_string@DU?$char_traits@D@std@@V?$allocator@D@2@@std@@H@std@@PEAX@0@AEBQEAU10@@Z
	??$_Construct_in_place@PEAU?$_Tree_node@U?$pair@$$CBV?$basic_string@DU?$char_traits@D@std@@V?$allocator@D@2@@std@@PEAUggml_tensor@@@std@@PEAX@std@@AEAPEAU12@@std@@YAXAEAPEAU?$_Tree_node@U?$pair@$$CBV?$basic_string@DU?$char_traits@D@std@@V?$allocator@D@2@@std@@PEAUggml_tensor@@@std@@PEAX@0@0@Z
	??$_Construct_in_place@PEAU?$_Tree_node@U?$pair@$$CBV?$basic_string@DU?$char_traits@D@std@@V?$allocator@D@2@@std@@PEAUggml_tensor@@@std@@PEAX@std@@AEBQEAU12@@std@@YAXAEAPEAU?$_Tree_node@U?$pair@$$CBV?$basic_string@DU?$char_traits@D@std@@V?$allocator@D@2@@std@@PEAUggml_tensor@@@std@@PEAX@0@AEBQEAU10@@Z
	??$_Construct_in_place@PEAU?$_Tree_node@U?$pair@$$CBW4parakeet_tensor@@PEBD@std@@PEAX@std@@AEAPEAU12@@std@@YAXAEAPEAU?$_Tree_node@U?$pair@$$CBW4parakeet_tensor@@PEBD@std@@PEAX@0@0@Z
	??$_Construct_in_place@PEAU?$_Tree_node@U?$pair@$$CBW4parakeet_tensor@@PEBD@std@@PEAX@std@@AEBQEAU12@@std@@YAXAEAPEAU?$_Tree_node@U?$pair@$$CBW4parakeet_tensor@@PEBD@std@@PEAX@0@AEBQEAU10@@Z
	??$_Construct_in_place@PEAU?$_Tree_node@U?$pair@$$CBW4parakeet_tensor@@W4ggml_op@@@std@@PEAX@std@@AEAPEAU12@@std@@YAXAEAPEAU?$_Tree_node@U?$pair@$$CBW4parakeet_tensor@@W4ggml_op@@@std@@PEAX@0@0@Z
	??$_Construct_in_place@PEAU?$_Tree_node@U?$pair@$$CBW4parakeet_tensor@@W4ggml_op@@@std@@PEAX@std@@AEBQEAU12@@std@@YAXAEAPEAU?$_Tree_node@U?$pair@$$CBW4parakeet_tensor@@W4ggml_op@@@std@@PEAX@0@AEBQEAU10@@Z
	??$_Construct_in_place@PEAU?$_Tree_node@U?$pair@QEAUggml_backend_buffer_type@@PEAUggml_context@@@std@@PEAX@std@@AEAPEAU12@@std@@YAXAEAPEAU?$_Tree_node@U?$pair@QEAUggml_backend_buffer_type@@PEAUggml_context@@@std@@PEAX@0@0@Z
	??$_Construct_in_place@PEAU?$_Tree_node@U?$pair@QEAUggml_backend_buffer_type@@PEAUggml_context@@@std@@PEAX@std@@AEBQEAU12@@std@@YAXAEAPEAU?$_Tree_node@U?$pair@QEAUggml_backend_buffer_type@@PEAUggml_context@@@std@@PEAX@0@AEBQEAU10@@Z
	??$_Construct_in_place@PEAUggml_backend@@AEBQEAU1@@std@@YAXAEAPEAUggml_backend@@AEBQEAU1@@Z
	??$_Construct_in_place@PEAUggml_backend_buffer@@AEAPEAU1@@std@@YAXAEAPEAUggml_backend_buffer@@0@Z
	??$_Construct_in_place@PEAUggml_context@@AEAPEAU1@@std@@YAXAEAPEAUggml_context@@0@Z
	??$_Construct_in_place@PEA_WAEAPEA_W@std@@YAXAEAPEA_W0@Z
	??$_Construct_in_place@PEA_WAEBQEA_W@std@@YAXAEAPEA_WAEBQEA_W@Z
	??$_Construct_in_place@U?$pair@PEAUggml_backend_device@@PEAUggml_backend_buffer_type@@@std@@AEAPEAUggml_backend_device@@AEAPEAUggml_backend_buffer_type@@@std@@YAXAEAU?$pair@PEAUggml_backend_device@@PEAUggml_backend_buffer_type@@@0@AEAPEAUggml_backend_device@@AEAPEAUggml_backend_buffer_type@@@Z
	??$_Construct_in_place@U?$pair@PEAUggml_backend_device@@PEAUggml_backend_buffer_type@@@std@@AEAPEAUggml_backend_device@@PEAUggml_backend_buffer_type@@@std@@YAXAEAU?$pair@PEAUggml_backend_device@@PEAUggml_backend_buffer_type@@@0@AEAPEAUggml_backend_device@@$$QEAPEAUggml_backend_buffer_type@@@Z
	??$_Construct_in_place@Uparakeet_segment@@U1@@std@@YAXAEAUparakeet_segment@@$$QEAU1@@Z
	??$_Construct_in_place@Uparakeet_token_data@@AEBU1@@std@@YAXAEAUparakeet_token_data@@AEBU1@@Z
	??$_Construct_n@$$V@?$vector@DV?$allocator@D@std@@@std@@AEAAX_K@Z
	??$_Construct_n@$$V@?$vector@MV?$allocator@M@std@@@std@@AEAAX_K@Z
	??$_Construct_n@$$V@?$vector@Vthread@std@@V?$allocator@Vthread@std@@@2@@std@@AEAAX_K@Z
	??$_Construct_n@AEBM@?$vector@MV?$allocator@M@std@@@std@@AEAAX_KAEBM@Z
	??$_Construct_n@AEBQEAPEAUggml_backend@@AEBQEAPEAU1@@?$vector@PEAUggml_backend@@V?$allocator@PEAUggml_backend@@@std@@@std@@AEAAX_KAEBQEAPEAUggml_backend@@1@Z
	??$_Construct_n@AEBQEAU?$pair@PEAUggml_backend_device@@PEAUggml_backend_buffer_type@@@std@@AEBQEAU12@@?$vector@U?$pair@PEAUggml_backend_device@@PEAUggml_backend_buffer_type@@@std@@V?$allocator@U?$pair@PEAUggml_backend_device@@PEAUggml_backend_buffer_type@@@std@@@2@@std@@AEAAX_KAEBQEAU?$pair@PEAUggml_backend_device@@PEAUggml_backend_buffer_type@@@1@1@Z
	??$_Construct_n@PEBMPEBM@?$vector@MV?$allocator@M@std@@@std@@AEAAX_K$$QEAPEBM1@Z
	??$_Convert_size@_K_K@std@@YA_K_K@Z
	??$_Copy_memmove@PEADPEAD@std@@YAPEADPEAD00@Z
	??$_Copy_memmove@PEAEPEAE@std@@YAPEAEPEAE00@Z
	??$_Copy_memmove@PEAHPEAH@std@@YAPEAHPEAH00@Z
	??$_Copy_memmove@PEAIPEAI@std@@YAPEAIPEAI00@Z
	??$_Copy_memmove@PEAMPEAM@std@@YAPEAMPEAM00@Z
	??$_Copy_memmove@PEAPEAUggml_backend@@PEAPEAU1@@std@@YAPEAPEAUggml_backend@@PEAPEAU1@00@Z
	??$_Copy_memmove@PEAPEAUggml_backend_buffer@@PEAPEAU1@@std@@YAPEAPEAUggml_backend_buffer@@PEAPEAU1@00@Z
	??$_Copy_memmove@PEAPEAUggml_context@@PEAPEAU1@@std@@YAPEAPEAUggml_context@@PEAPEAU1@00@Z
	??$_Copy_memmove@PEAU?$pair@PEAUggml_backend_device@@PEAUggml_backend_buffer_type@@@std@@PEAU12@@std@@YAPEAU?$pair@PEAUggml_backend_device@@PEAUggml_backend_buffer_type@@@0@PEAU10@00@Z
	??$_Copy_memmove@PEAUparakeet_layer_encoder@@PEAU1@@std@@YAPEAUparakeet_layer_encoder@@PEAU1@00@Z
	??$_Copy_memmove@PEAUparakeet_lsmt_layer@@PEAU1@@std@@YAPEAUparakeet_lsmt_layer@@PEAU1@00@Z
	??$_Copy_memmove@PEAUparakeet_lstm_state_layer@@PEAU1@@std@@YAPEAUparakeet_lstm_state_layer@@PEAU1@00@Z
	??$_Copy_memmove@PEAUparakeet_token_data@@PEAU1@@std@@YAPEAUparakeet_token_data@@PEAU1@00@Z
	??$_Copy_memmove@PEBMPEAM@std@@YAPEAMPEBM0PEAM@Z
	??$_Copy_memmove_n@PEAUparakeet_token_data@@PEAU1@@std@@YAPEAUparakeet_token_data@@PEAU1@_K0@Z
	??$_Copy_memmove_tail@PEAD@std@@YAPEADQEBDQEAD_K2@Z
	??$_Copy_memmove_tail@PEAE@std@@YAPEAEQEBDQEAE_K2@Z
	??$_Copy_memmove_tail@PEAH@std@@YAPEAHQEBDQEAH_K2@Z
	??$_Copy_memmove_tail@PEAI@std@@YAPEAIQEBDQEAI_K2@Z
	??$_Copy_memmove_tail@PEAM@std@@YAPEAMQEBDQEAM_K2@Z
	??$_Copy_memmove_tail@PEAPEAUggml_backend@@@std@@YAPEAPEAUggml_backend@@QEBDQEAPEAU1@_K2@Z
	??$_Copy_memmove_tail@PEAPEAUggml_backend_buffer@@@std@@YAPEAPEAUggml_backend_buffer@@QEBDQEAPEAU1@_K2@Z
	??$_Copy_memmove_tail@PEAPEAUggml_context@@@std@@YAPEAPEAUggml_context@@QEBDQEAPEAU1@_K2@Z
	??$_Copy_memmove_tail@PEAU?$pair@PEAUggml_backend_device@@PEAUggml_backend_buffer_type@@@std@@@std@@YAPEAU?$pair@PEAUggml_backend_device@@PEAUggml_backend_buffer_type@@@0@QEBDQEAU10@_K2@Z
	??$_Copy_memmove_tail@PEAUparakeet_layer_encoder@@@std@@YAPEAUparakeet_layer_encoder@@QEBDQEAU1@_K2@Z
	??$_Copy_memmove_tail@PEAUparakeet_lsmt_layer@@@std@@YAPEAUparakeet_lsmt_layer@@QEBDQEAU1@_K2@Z
	??$_Copy_memmove_tail@PEAUparakeet_lstm_state_layer@@@std@@YAPEAUparakeet_lstm_state_layer@@QEBDQEAU1@_K2@Z
	??$_Copy_memmove_tail@PEAUparakeet_token_data@@@std@@YAPEAUparakeet_token_data@@QEBDQEAU1@_K2@Z
	??$_Copy_n_unchecked4@PEAUparakeet_token_data@@_KPEAU1@@std@@YAPEAUparakeet_token_data@@PEAU1@_K0@Z
	??$_Copy_unchecked@PEAMPEAMPEAM@std@@YAPEAMPEAM00@Z
	??$_Deallocate@$07@std@@YAXPEAX_K@Z
	??$_Deallocate@$0BA@@std@@YAXPEAX_K@Z
	??$_Destroy_in_place@PEAD@std@@YAXAEAPEAD@Z
	??$_Destroy_in_place@PEAU?$_Tree_node@U?$pair@$$CBHV?$basic_string@DU?$char_traits@D@std@@V?$allocator@D@2@@std@@@std@@PEAX@std@@@std@@YAXAEAPEAU?$_Tree_node@U?$pair@$$CBHV?$basic_string@DU?$char_traits@D@std@@V?$allocator@D@2@@std@@@std@@PEAX@0@@Z
	??$_Destroy_in_place@PEAU?$_Tree_node@U?$pair@$$CBV?$basic_string@DU?$char_traits@D@std@@V?$allocator@D@2@@std@@H@std@@PEAX@std@@@std@@YAXAEAPEAU?$_Tree_node@U?$pair@$$CBV?$basic_string@DU?$char_traits@D@std@@V?$allocator@D@2@@std@@H@std@@PEAX@0@@Z
	??$_Destroy_in_place@PEAU?$_Tree_node@U?$pair@$$CBV?$basic_string@DU?$char_traits@D@std@@V?$allocator@D@2@@std@@PEAUggml_tensor@@@std@@PEAX@std@@@std@@YAXAEAPEAU?$_Tree_node@U?$pair@$$CBV?$basic_string@DU?$char_traits@D@std@@V?$allocator@D@2@@std@@PEAUggml_tensor@@@std@@PEAX@0@@Z
	??$_Destroy_in_place@PEAU?$_Tree_node@U?$pair@$$CBW4parakeet_tensor@@PEBD@std@@PEAX@std@@@std@@YAXAEAPEAU?$_Tree_node@U?$pair@$$CBW4parakeet_tensor@@PEBD@std@@PEAX@0@@Z
	??$_Destroy_in_place@PEAU?$_Tree_node@U?$pair@$$CBW4parakeet_tensor@@W4ggml_op@@@std@@PEAX@std@@@std@@YAXAEAPEAU?$_Tree_node@U?$pair@$$CBW4parakeet_tensor@@W4ggml_op@@@std@@PEAX@0@@Z
	??$_Destroy_in_place@PEAU?$_Tree_node@U?$pair@QEAUggml_backend_buffer_type@@PEAUggml_context@@@std@@PEAX@std@@@std@@YAXAEAPEAU?$_Tree_node@U?$pair@QEAUggml_backend_buffer_type@@PEAUggml_context@@@std@@PEAX@0@@Z
	??$_Destroy_in_place@PEA_W@std@@YAXAEAPEA_W@Z
	??$_Destroy_range@V?$allocator@D@std@@@std@@YAXPEADQEADAEAV?$allocator@D@0@@Z
	??$_Destroy_range@V?$allocator@E@std@@@std@@YAXPEAEQEAEAEAV?$allocator@E@0@@Z
	??$_Destroy_range@V?$allocator@H@std@@@std@@YAXPEAHQEAHAEAV?$allocator@H@0@@Z
	??$_Destroy_range@V?$allocator@I@std@@@std@@YAXPEAIQEAIAEAV?$allocator@I@0@@Z
	??$_Destroy_range@V?$allocator@M@std@@@std@@YAXPEAMQEAMAEAV?$allocator@M@0@@Z
	??$_Destroy_range@V?$allocator@PEAUggml_backend@@@std@@@std@@YAXPEAPEAUggml_backend@@QEAPEAU1@AEAV?$allocator@PEAUggml_backend@@@0@@Z
	??$_Destroy_range@V?$allocator@PEAUggml_backend_buffer@@@std@@@std@@YAXPEAPEAUggml_backend_buffer@@QEAPEAU1@AEAV?$allocator@PEAUggml_backend_buffer@@@0@@Z
	??$_Destroy_range@V?$allocator@PEAUggml_context@@@std@@@std@@YAXPEAPEAUggml_context@@QEAPEAU1@AEAV?$allocator@PEAUggml_context@@@0@@Z
	??$_Destroy_range@V?$allocator@U?$pair@PEAUggml_backend_device@@PEAUggml_backend_buffer_type@@@std@@@std@@@std@@YAXPEAU?$pair@PEAUggml_backend_device@@PEAUggml_backend_buffer_type@@@0@QEAU10@AEAV?$allocator@U?$pair@PEAUggml_backend_device@@PEAUggml_backend_buffer_type@@@std@@@0@@Z
	??$_Destroy_range@V?$allocator@Uparakeet_layer_encoder@@@std@@@std@@YAXPEAUparakeet_layer_encoder@@QEAU1@AEAV?$allocator@Uparakeet_layer_encoder@@@0@@Z
	??$_Destroy_range@V?$allocator@Uparakeet_lsmt_layer@@@std@@@std@@YAXPEAUparakeet_lsmt_layer@@QEAU1@AEAV?$allocator@Uparakeet_lsmt_layer@@@0@@Z
	??$_Destroy_range@V?$allocator@Uparakeet_lstm_state_layer@@@std@@@std@@YAXPEAUparakeet_lstm_state_layer@@QEAU1@AEAV?$allocator@Uparakeet_lstm_state_layer@@@0@@Z
	??$_Destroy_range@V?$allocator@Uparakeet_segment@@@std@@@std@@YAXPEAUparakeet_segment@@QEAU1@AEAV?$allocator@Uparakeet_segment@@@0@@Z
	??$_Destroy_range@V?$allocator@Uparakeet_token_data@@@std@@@std@@YAXPEAUparakeet_token_data@@QEAU1@AEAV?$allocator@Uparakeet_token_data@@@0@@Z
	??$_Destroy_range@V?$allocator@Vthread@std@@@std@@@std@@YAXPEAVthread@0@QEAV10@AEAV?$allocator@Vthread@std@@@0@@Z
	??$_Emplace_back@$$V@?$_Uninitialized_backout_al@V?$allocator@D@std@@@std@@QEAAXXZ
	??$_Emplace_back@$$V@?$_Uninitialized_backout_al@V?$allocator@E@std@@@std@@QEAAXXZ
	??$_Emplace_back@$$V@?$_Uninitialized_backout_al@V?$allocator@I@std@@@std@@QEAAXXZ
	??$_Emplace_back@$$V@?$_Uninitialized_backout_al@V?$allocator@M@std@@@std@@QEAAXXZ
	??$_Emplace_back@$$V@?$_Uninitialized_backout_al@V?$allocator@Uparakeet_layer_encoder@@@std@@@std@@QEAAXXZ
	??$_Emplace_back@$$V@?$_Uninitialized_backout_al@V?$allocator@Uparakeet_lsmt_layer@@@std@@@std@@QEAAXXZ
	??$_Emplace_back@$$V@?$_Uninitialized_backout_al@V?$allocator@Uparakeet_lstm_state_layer@@@std@@@std@@QEAAXXZ
	??$_Emplace_back@$$V@?$_Uninitialized_backout_al@V?$allocator@Vthread@std@@@std@@@std@@QEAAXXZ
	??$_Emplace_back@AEAPEAUggml_backend@@@?$_Uninitialized_backout_al@V?$allocator@PEAUggml_backend@@@std@@@std@@QEAAXAEAPEAUggml_backend@@@Z
	??$_Emplace_back@AEAU?$pair@PEAUggml_backend_device@@PEAUggml_backend_buffer_type@@@std@@@?$_Uninitialized_backout_al@V?$allocator@U?$pair@PEAUggml_backend_device@@PEAUggml_backend_buffer_type@@@std@@@std@@@std@@QEAAXAEAU?$pair@PEAUggml_backend_device@@PEAUggml_backend_buffer_type@@@1@@Z
	??$_Emplace_back@AEAUparakeet_token_data@@@?$_Uninitialized_backout_al@V?$allocator@Uparakeet_token_data@@@std@@@std@@QEAAXAEAUparakeet_token_data@@@Z
	??$_Emplace_back@AEBM@?$_Uninitialized_backout_al@V?$allocator@M@std@@@std@@QEAAXAEBM@Z
	??$_Emplace_back@D@?$_Uninitialized_backout_al@V?$allocator@D@std@@@std@@QEAAX$$QEAD@Z
	??$_Emplace_back@E@?$_Uninitialized_backout_al@V?$allocator@E@std@@@std@@QEAAX$$QEAE@Z
	??$_Emplace_back@H@?$_Uninitialized_backout_al@V?$allocator@H@std@@@std@@QEAAX$$QEAH@Z
	??$_Emplace_back@I@?$_Uninitialized_backout_al@V?$allocator@I@std@@@std@@QEAAX$$QEAI@Z
	??$_Emplace_back@M@?$_Uninitialized_backout_al@V?$allocator@M@std@@@std@@QEAAX$$QEAM@Z
	??$_Emplace_back@PEAUggml_backend@@@?$_Uninitialized_backout_al@V?$allocator@PEAUggml_backend@@@std@@@std@@QEAAX$$QEAPEAUggml_backend@@@Z
	??$_Emplace_back@PEAUggml_backend_buffer@@@?$_Uninitialized_backout_al@V?$allocator@PEAUggml_backend_buffer@@@std@@@std@@QEAAX$$QEAPEAUggml_backend_buffer@@@Z
	??$_Emplace_back@PEAUggml_context@@@?$_Uninitialized_backout_al@V?$allocator@PEAUggml_context@@@std@@@std@@QEAAX$$QEAPEAUggml_context@@@Z
	??$_Emplace_back@U?$pair@PEAUggml_backend_device@@PEAUggml_backend_buffer_type@@@std@@@?$_Uninitialized_backout_al@V?$allocator@U?$pair@PEAUggml_backend_device@@PEAUggml_backend_buffer_type@@@std@@@std@@@std@@QEAAX$$QEAU?$pair@PEAUggml_backend_device@@PEAUggml_backend_buffer_type@@@1@@Z
	??$_Emplace_back@Uparakeet_layer_encoder@@@?$_Uninitialized_backout_al@V?$allocator@Uparakeet_layer_encoder@@@std@@@std@@QEAAX$$QEAUparakeet_layer_encoder@@@Z
	??$_Emplace_back@Uparakeet_lsmt_layer@@@?$_Uninitialized_backout_al@V?$allocator@Uparakeet_lsmt_layer@@@std@@@std@@QEAAX$$QEAUparakeet_lsmt_layer@@@Z
	??$_Emplace_back@Uparakeet_lstm_state_layer@@@?$_Uninitialized_backout_al@V?$allocator@Uparakeet_lstm_state_layer@@@std@@@std@@QEAAX$$QEAUparakeet_lstm_state_layer@@@Z
	??$_Emplace_back@Uparakeet_segment@@@?$_Uninitialized_backout_al@V?$allocator@Uparakeet_segment@@@std@@@std@@QEAAX$$QEAUparakeet_segment@@@Z
	??$_Emplace_back@Uparakeet_token_data@@@?$_Uninitialized_backout_al@V?$allocator@Uparakeet_token_data@@@std@@@std@@QEAAX$$QEAUparakeet_token_data@@@Z
	??$_Emplace_back_with_unused_capacity@AEAPEAUggml_backend_buffer@@@?$vector@PEAUggml_backend_buffer@@V?$allocator@PEAUggml_backend_buffer@@@std@@@std@@AEAAAEAPEAUggml_backend_buffer@@AEAPEAU2@@Z
	??$_Emplace_back_with_unused_capacity@AEAPEAUggml_backend_device@@AEAPEAUggml_backend_buffer_type@@@?$vector@U?$pair@PEAUggml_backend_device@@PEAUggml_backend_buffer_type@@@std@@V?$allocator@U?$pair@PEAUggml_backend_device@@PEAUggml_backend_buffer_type@@@std@@@2@@std@@AEAAAEAU?$pair@PEAUggml_backend_device@@PEAUggml_backend_buffer_type@@@1@AEAPEAUggml_backend_device@@AEAPEAUggml_backend_buffer_type@@@Z
	??$_Emplace_back_with_unused_capacity@AEAPEAUggml_backend_device@@PEAUggml_backend_buffer_type@@@?$vector@U?$pair@PEAUggml_backend_device@@PEAUggml_backend_buffer_type@@@std@@V?$allocator@U?$pair@PEAUggml_backend_device@@PEAUggml_backend_buffer_type@@@std@@@2@@std@@AEAAAEAU?$pair@PEAUggml_backend_device@@PEAUggml_backend_buffer_type@@@1@AEAPEAUggml_backend_device@@$$QEAPEAUggml_backend_buffer_type@@@Z
	??$_Emplace_back_with_unused_capacity@AEAPEAUggml_context@@@?$vector@PEAUggml_context@@V?$allocator@PEAUggml_context@@@std@@@std@@AEAAAEAPEAUggml_context@@AEAPEAU2@@Z
	??$_Emplace_back_with_unused_capacity@AEBH@?$vector@HV?$allocator@H@std@@@std@@AEAAAEAHAEBH@Z
	??$_Emplace_back_with_unused_capacity@AEBQEAUggml_backend@@@?$vector@PEAUggml_backend@@V?$allocator@PEAUggml_backend@@@std@@@std@@AEAAAEAPEAUggml_backend@@AEBQEAU2@@Z
	??$_Emplace_back_with_unused_capacity@AEBUparakeet_token_data@@@?$vector@Uparakeet_token_data@@V?$allocator@Uparakeet_token_data@@@std@@@std@@AEAAAEAUparakeet_token_data@@AEBU2@@Z
	??$_Emplace_back_with_unused_capacity@Uparakeet_segment@@@?$vector@Uparakeet_segment@@V?$allocator@Uparakeet_segment@@@std@@@std@@AEAAAEAUparakeet_segment@@$$QEAU2@@Z
	??$_Emplace_hint@AEBU?$pair@$$CBW4parakeet_tensor@@PEBD@std@@@?$_Tree@V?$_Tmap_traits@W4parakeet_tensor@@PEBDU?$less@W4parakeet_tensor@@@std@@V?$allocator@U?$pair@$$CBW4parakeet_tensor@@PEBD@std@@@3@$0A@@std@@@std@@IEAAPEAU?$_Tree_node@U?$pair@$$CBW4parakeet_tensor@@PEBD@std@@PEAX@1@QEAU21@AEBU?$pair@$$CBW4parakeet_tensor@@PEBD@1@@Z
	??$_Emplace_hint@AEBU?$pair@$$CBW4parakeet_tensor@@W4ggml_op@@@std@@@?$_Tree@V?$_Tmap_traits@W4parakeet_tensor@@W4ggml_op@@U?$less@W4parakeet_tensor@@@std@@V?$allocator@U?$pair@$$CBW4parakeet_tensor@@W4ggml_op@@@std@@@4@$0A@@std@@@std@@IEAAPEAU?$_Tree_node@U?$pair@$$CBW4parakeet_tensor@@W4ggml_op@@@std@@PEAX@1@QEAU21@AEBU?$pair@$$CBW4parakeet_tensor@@W4ggml_op@@@1@@Z
	??$_Emplace_one_at_back@AEAPEAUggml_backend_buffer@@@?$vector@PEAUggml_backend_buffer@@V?$allocator@PEAUggml_backend_buffer@@@std@@@std@@AEAAAEAPEAUggml_backend_buffer@@AEAPEAU2@@Z
	??$_Emplace_one_at_back@AEAPEAUggml_backend_device@@AEAPEAUggml_backend_buffer_type@@@?$vector@U?$pair@PEAUggml_backend_device@@PEAUggml_backend_buffer_type@@@std@@V?$allocator@U?$pair@PEAUggml_backend_device@@PEAUggml_backend_buffer_type@@@std@@@2@@std@@AEAAAEAU?$pair@PEAUggml_backend_device@@PEAUggml_backend_buffer_type@@@1@AEAPEAUggml_backend_device@@AEAPEAUggml_backend_buffer_type@@@Z
	??$_Emplace_one_at_back@AEAPEAUggml_backend_device@@PEAUggml_backend_buffer_type@@@?$vector@U?$pair@PEAUggml_backend_device@@PEAUggml_backend_buffer_type@@@std@@V?$allocator@U?$pair@PEAUggml_backend_device@@PEAUggml_backend_buffer_type@@@std@@@2@@std@@AEAAAEAU?$pair@PEAUggml_backend_device@@PEAUggml_backend_buffer_type@@@1@AEAPEAUggml_backend_device@@$$QEAPEAUggml_backend_buffer_type@@@Z
	??$_Emplace_one_at_back@AEAPEAUggml_context@@@?$vector@PEAUggml_context@@V?$allocator@PEAUggml_context@@@std@@@std@@AEAAAEAPEAUggml_context@@AEAPEAU2@@Z
	??$_Emplace_one_at_back@AEBH@?$vector@HV?$allocator@H@std@@@std@@AEAAAEAHAEBH@Z
	??$_Emplace_one_at_back@AEBQEAUggml_backend@@@?$vector@PEAUggml_backend@@V?$allocator@PEAUggml_backend@@@std@@@std@@AEAAAEAPEAUggml_backend@@AEBQEAU2@@Z
	??$_Emplace_one_at_back@AEBUparakeet_token_data@@@?$vector@Uparakeet_token_data@@V?$allocator@Uparakeet_token_data@@@std@@@std@@AEAAAEAUparakeet_token_data@@AEBU2@@Z
	??$_Emplace_one_at_back@Uparakeet_segment@@@?$vector@Uparakeet_segment@@V?$allocator@Uparakeet_segment@@@std@@@std@@AEAAAEAUparakeet_segment@@$$QEAU2@@Z
	??$_Emplace_reallocate@AEAPEAUggml_backend_buffer@@@?$vector@PEAUggml_backend_buffer@@V?$allocator@PEAUggml_backend_buffer@@@std@@@std@@AEAAPEAPEAUggml_backend_buffer@@QEAPEAU2@AEAPEAU2@@Z
	??$_Emplace_reallocate@AEAPEAUggml_backend_device@@AEAPEAUggml_backend_buffer_type@@@?$vector@U?$pair@PEAUggml_backend_device@@PEAUggml_backend_buffer_type@@@std@@V?$allocator@U?$pair@PEAUggml_backend_device@@PEAUggml_backend_buffer_type@@@std@@@2@@std@@AEAAPEAU?$pair@PEAUggml_backend_device@@PEAUggml_backend_buffer_type@@@1@QEAU21@AEAPEAUggml_backend_device@@AEAPEAUggml_backend_buffer_type@@@Z
	??$_Emplace_reallocate@AEAPEAUggml_backend_device@@PEAUggml_backend_buffer_type@@@?$vector@U?$pair@PEAUggml_backend_device@@PEAUggml_backend_buffer_type@@@std@@V?$allocator@U?$pair@PEAUggml_backend_device@@PEAUggml_backend_buffer_type@@@std@@@2@@std@@AEAAPEAU?$pair@PEAUggml_backend_device@@PEAUggml_backend_buffer_type@@@1@QEAU21@AEAPEAUggml_backend_device@@$$QEAPEAUggml_backend_buffer_type@@@Z
	??$_Emplace_reallocate@AEAPEAUggml_context@@@?$vector@PEAUggml_context@@V?$allocator@PEAUggml_context@@@std@@@std@@AEAAPEAPEAUggml_context@@QEAPEAU2@AEAPEAU2@@Z
	??$_Emplace_reallocate@AEBH@?$vector@HV?$allocator@H@std@@@std@@AEAAPEAHQEAHAEBH@Z
	??$_Emplace_reallocate@AEBQEAUggml_backend@@@?$vector@PEAUggml_backend@@V?$allocator@PEAUggml_backend@@@std@@@std@@AEAAPEAPEAUggml_backend@@QEAPEAU2@AEBQEAU2@@Z
	??$_Emplace_reallocate@AEBUparakeet_token_data@@@?$vector@Uparakeet_token_data@@V?$allocator@Uparakeet_token_data@@@std@@@std@@AEAAPEAUparakeet_token_data@@QEAU2@AEBU2@@Z
	??$_Emplace_reallocate@Uparakeet_segment@@@?$vector@Uparakeet_segment@@V?$allocator@Uparakeet_segment@@@std@@@std@@AEAAPEAUparakeet_segment@@QEAU2@$$QEAU2@@Z
	??$_Erase_head@V?$allocator@U?$_Tree_node@U?$pair@$$CBHV?$basic_string@DU?$char_traits@D@std@@V?$allocator@D@2@@std@@@std@@PEAX@std@@@std@@@?$_Tree_val@U?$_Tree_simple_types@U?$pair@$$CBHV?$basic_string@DU?$char_traits@D@std@@V?$allocator@D@2@@std@@@std@@@std@@@std@@QEAAXAEAV?$allocator@U?$_Tree_node@U?$pair@$$CBHV?$basic_string@DU?$char_traits@D@std@@V?$allocator@D@2@@std@@@std@@PEAX@std@@@1@@Z
	??$_Erase_head@V?$allocator@U?$_Tree_node@U?$pair@$$CBV?$basic_string@DU?$char_traits@D@std@@V?$allocator@D@2@@std@@H@std@@PEAX@std@@@std@@@?$_Tree_val@U?$_Tree_simple_types@U?$pair@$$CBV?$basic_string@DU?$char_traits@D@std@@V?$allocator@D@2@@std@@H@std@@@std@@@std@@QEAAXAEAV?$allocator@U?$_Tree_node@U?$pair@$$CBV?$basic_string@DU?$char_traits@D@std@@V?$allocator@D@2@@std@@H@std@@PEAX@std@@@1@@Z
	??$_Erase_head@V?$allocator@U?$_Tree_node@U?$pair@$$CBV?$basic_string@DU?$char_traits@D@std@@V?$allocator@D@2@@std@@PEAUggml_tensor@@@std@@PEAX@std@@@std@@@?$_Tree_val@U?$_Tree_simple_types@U?$pair@$$CBV?$basic_string@DU?$char_traits@D@std@@V?$allocator@D@2@@std@@PEAUggml_tensor@@@std@@@std@@@std@@QEAAXAEAV?$allocator@U?$_Tree_node@U?$pair@$$CBV?$basic_string@DU?$char_traits@D@std@@V?$allocator@D@2@@std@@PEAUggml_tensor@@@std@@PEAX@std@@@1@@Z
	??$_Erase_head@V?$allocator@U?$_Tree_node@U?$pair@$$CBW4parakeet_tensor@@PEBD@std@@PEAX@std@@@std@@@?$_Tree_val@U?$_Tree_simple_types@U?$pair@$$CBW4parakeet_tensor@@PEBD@std@@@std@@@std@@QEAAXAEAV?$allocator@U?$_Tree_node@U?$pair@$$CBW4parakeet_tensor@@PEBD@std@@PEAX@std@@@1@@Z
	??$_Erase_head@V?$allocator@U?$_Tree_node@U?$pair@$$CBW4parakeet_tensor@@W4ggml_op@@@std@@PEAX@std@@@std@@@?$_Tree_val@U?$_Tree_simple_types@U?$pair@$$CBW4parakeet_tensor@@W4ggml_op@@@std@@@std@@@std@@QEAAXAEAV?$allocator@U?$_Tree_node@U?$pair@$$CBW4parakeet_tensor@@W4ggml_op@@@std@@PEAX@std@@@1@@Z
	??$_Erase_head@V?$allocator@U?$_Tree_node@U?$pair@QEAUggml_backend_buffer_type@@PEAUggml_context@@@std@@PEAX@std@@@std@@@?$_Tree_val@U?$_Tree_simple_types@U?$pair@QEAUggml_backend_buffer_type@@PEAUggml_context@@@std@@@std@@@std@@QEAAXAEAV?$allocator@U?$_Tree_node@U?$pair@QEAUggml_backend_buffer_type@@PEAUggml_context@@@std@@PEAX@std@@@1@@Z
	??$_Erase_tree@V?$allocator@U?$_Tree_node@U?$pair@$$CBHV?$basic_string@DU?$char_traits@D@std@@V?$allocator@D@2@@std@@@std@@PEAX@std@@@std@@@?$_Tree_val@U?$_Tree_simple_types@U?$pair@$$CBHV?$basic_string@DU?$char_traits@D@std@@V?$allocator@D@2@@std@@@std@@@std@@@std@@QEAAXAEAV?$allocator@U?$_Tree_node@U?$pair@$$CBHV?$basic_string@DU?$char_traits@D@std@@V?$allocator@D@2@@std@@@std@@PEAX@std@@@1@PEAU?$_Tree_node@U?$pair@$$CBHV?$basic_string@DU?$char_traits@D@std@@V?$allocator@D@2@@std@@@std@@PEAX@1@@Z
	??$_Erase_tree@V?$allocator@U?$_Tree_node@U?$pair@$$CBV?$basic_string@DU?$char_traits@D@std@@V?$allocator@D@2@@std@@H@std@@PEAX@std@@@std@@@?$_Tree_val@U?$_Tree_simple_types@U?$pair@$$CBV?$basic_string@DU?$char_traits@D@std@@V?$allocator@D@2@@std@@H@std@@@std@@@std@@QEAAXAEAV?$allocator@U?$_Tree_node@U?$pair@$$CBV?$basic_string@DU?$char_traits@D@std@@V?$allocator@D@2@@std@@H@std@@PEAX@std@@@1@PEAU?$_Tree_node@U?$pair@$$CBV?$basic_string@DU?$char_traits@D@std@@V?$allocator@D@2@@std@@H@std@@PEAX@1@@Z
	??$_Erase_tree@V?$allocator@U?$_Tree_node@U?$pair@$$CBV?$basic_string@DU?$char_traits@D@std@@V?$allocator@D@2@@std@@PEAUggml_tensor@@@std@@PEAX@std@@@std@@@?$_Tree_val@U?$_Tree_simple_types@U?$pair@$$CBV?$basic_string@DU?$char_traits@D@std@@V?$allocator@D@2@@std@@PEAUggml_tensor@@@std@@@std@@@std@@QEAAXAEAV?$allocator@U?$_Tree_node@U?$pair@$$CBV?$basic_string@DU?$char_traits@D@std@@V?$allocator@D@2@@std@@PEAUggml_tensor@@@std@@PEAX@std@@@1@PEAU?$_Tree_node@U?$pair@$$CBV?$basic_string@DU?$char_traits@D@std@@V?$allocator@D@2@@std@@PEAUggml_tensor@@@std@@PEAX@1@@Z
	??$_Erase_tree@V?$allocator@U?$_Tree_node@U?$pair@$$CBW4parakeet_tensor@@PEBD@std@@PEAX@std@@@std@@@?$_Tree_val@U?$_Tree_simple_types@U?$pair@$$CBW4parakeet_tensor@@PEBD@std@@@std@@@std@@QEAAXAEAV?$allocator@U?$_Tree_node@U?$pair@$$CBW4parakeet_tensor@@PEBD@std@@PEAX@std@@@1@PEAU?$_Tree_node@U?$pair@$$CBW4parakeet_tensor@@PEBD@std@@PEAX@1@@Z
	??$_Erase_tree@V?$allocator@U?$_Tree_node@U?$pair@$$CBW4parakeet_tensor@@W4ggml_op@@@std@@PEAX@std@@@std@@@?$_Tree_val@U?$_Tree_simple_types@U?$pair@$$CBW4parakeet_tensor@@W4ggml_op@@@std@@@std@@@std@@QEAAXAEAV?$allocator@U?$_Tree_node@U?$pair@$$CBW4parakeet_tensor@@W4ggml_op@@@std@@PEAX@std@@@1@PEAU?$_Tree_node@U?$pair@$$CBW4parakeet_tensor@@W4ggml_op@@@std@@PEAX@1@@Z
	??$_Erase_tree@V?$allocator@U?$_Tree_node@U?$pair@QEAUggml_backend_buffer_type@@PEAUggml_context@@@std@@PEAX@std@@@std@@@?$_Tree_val@U?$_Tree_simple_types@U?$pair@QEAUggml_backend_buffer_type@@PEAUggml_context@@@std@@@std@@@std@@QEAAXAEAV?$allocator@U?$_Tree_node@U?$pair@QEAUggml_backend_buffer_type@@PEAUggml_context@@@std@@PEAX@std@@@1@PEAU?$_Tree_node@U?$pair@QEAUggml_backend_buffer_type@@PEAUggml_context@@@std@@PEAX@1@@Z
	??$_Fgetc@D@std@@YA_NAEADPEAU_iobuf@@@Z
	??$_Fill_zero_memset@PEAM@std@@YAXPEAM_K@Z
	??$_Find@PEAUggml_backend_buffer_type@@@?$_Tree@V?$_Tmap_traits@PEAUggml_backend_buffer_type@@PEAUggml_context@@U?$less@PEAUggml_backend_buffer_type@@@std@@V?$allocator@U?$pair@QEAUggml_backend_buffer_type@@PEAUggml_context@@@std@@@4@$0A@@std@@@std@@AEBAPEAU?$_Tree_node@U?$pair@QEAUggml_backend_buffer_type@@PEAUggml_context@@@std@@PEAX@1@AEBQEAUggml_backend_buffer_type@@@Z
	??$_Find@V?$basic_string@DU?$char_traits@D@std@@V?$allocator@D@2@@std@@@?$_Tree@V?$_Tmap_traits@V?$basic_string@DU?$char_traits@D@std@@V?$allocator@D@2@@std@@HU?$less@V?$basic_string@DU?$char_traits@D@std@@V?$allocator@D@2@@std@@@2@V?$allocator@U?$pair@$$CBV?$basic_string@DU?$char_traits@D@std@@V?$allocator@D@2@@std@@H@std@@@2@$0A@@std@@@std@@AEBAPEAU?$_Tree_node@U?$pair@$$CBV?$basic_string@DU?$char_traits@D@std@@V?$allocator@D@2@@std@@H@std@@PEAX@1@AEBV?$basic_string@DU?$char_traits@D@std@@V?$allocator@D@2@@1@@Z
	??$_Find@V?$basic_string@DU?$char_traits@D@std@@V?$allocator@D@2@@std@@@?$_Tree@V?$_Tmap_traits@V?$basic_string@DU?$char_traits@D@std@@V?$allocator@D@2@@std@@PEAUggml_tensor@@U?$less@V?$basic_string@DU?$char_traits@D@std@@V?$allocator@D@2@@std@@@2@V?$allocator@U?$pair@$$CBV?$basic_string@DU?$char_traits@D@std@@V?$allocator@D@2@@std@@PEAUggml_tensor@@@std@@@2@$0A@@std@@@std@@AEBAPEAU?$_Tree_node@U?$pair@$$CBV?$basic_string@DU?$char_traits@D@std@@V?$allocator@D@2@@std@@PEAUggml_tensor@@@std@@PEAX@1@AEBV?$basic_string@DU?$char_traits@D@std@@V?$allocator@D@2@@1@@Z
	??$_Find_hint@W4parakeet_tensor@@@?$_Tree@V?$_Tmap_traits@W4parakeet_tensor@@PEBDU?$less@W4parakeet_tensor@@@std@@V?$allocator@U?$pair@$$CBW4parakeet_tensor@@PEBD@std@@@3@$0A@@std@@@std@@IEBA?AU?$_Tree_find_hint_result@PEAU?$_Tree_node@U?$pair@$$CBW4parakeet_tensor@@PEBD@std@@PEAX@std@@@1@QEAU?$_Tree_node@U?$pair@$$CBW4parakeet_tensor@@PEBD@std@@PEAX@1@AEBW4parakeet_tensor@@@Z
	??$_Find_hint@W4parakeet_tensor@@@?$_Tree@V?$_Tmap_traits@W4parakeet_tensor@@W4ggml_op@@U?$less@W4parakeet_tensor@@@std@@V?$allocator@U?$pair@$$CBW4parakeet_tensor@@W4ggml_op@@@std@@@4@$0A@@std@@@std@@IEBA?AU?$_Tree_find_hint_result@PEAU?$_Tree_node@U?$pair@$$CBW4parakeet_tensor@@W4ggml_op@@@std@@PEAX@std@@@1@QEAU?$_Tree_node@U?$pair@$$CBW4parakeet_tensor@@W4ggml_op@@@std@@PEAX@1@AEBW4parakeet_tensor@@@Z
	??$_Find_lower_bound@H@?$_Tree@V?$_Tmap_traits@HV?$basic_string@DU?$char_traits@D@std@@V?$allocator@D@2@@std@@U?$less@H@2@V?$allocator@U?$pair@$$CBHV?$basic_string@DU?$char_traits@D@std@@V?$allocator@D@2@@std@@@std@@@2@$0A@@std@@@std@@IEBA?AU?$_Tree_find_result@PEAU?$_Tree_node@U?$pair@$$CBHV?$basic_string@DU?$char_traits@D@std@@V?$allocator@D@2@@std@@@std@@PEAX@std@@@1@AEBH@Z
	??$_Find_lower_bound@PEAUggml_backend_buffer_type@@@?$_Tree@V?$_Tmap_traits@PEAUggml_backend_buffer_type@@PEAUggml_context@@U?$less@PEAUggml_backend_buffer_type@@@std@@V?$allocator@U?$pair@QEAUggml_backend_buffer_type@@PEAUggml_context@@@std@@@4@$0A@@std@@@std@@IEBA?AU?$_Tree_find_result@PEAU?$_Tree_node@U?$pair@QEAUggml_backend_buffer_type@@PEAUggml_context@@@std@@PEAX@std@@@1@AEBQEAUggml_backend_buffer_type@@@Z
	??$_Find_lower_bound@V?$basic_string@DU?$char_traits@D@std@@V?$allocator@D@2@@std@@@?$_Tree@V?$_Tmap_traits@V?$basic_string@DU?$char_traits@D@std@@V?$allocator@D@2@@std@@HU?$less@V?$basic_string@DU?$char_traits@D@std@@V?$allocator@D@2@@std@@@2@V?$allocator@U?$pair@$$CBV?$basic_string@DU?$char_traits@D@std@@V?$allocator@D@2@@std@@H@std@@@2@$0A@@std@@@std@@IEBA?AU?$_Tree_find_result@PEAU?$_Tree_node@U?$pair@$$CBV?$basic_string@DU?$char_traits@D@std@@V?$allocator@D@2@@std@@H@std@@PEAX@std@@@1@AEBV?$basic_string@DU?$char_traits@D@std@@V?$allocator@D@2@@1@@Z
	??$_Find_lower_bound@V?$basic_string@DU?$char_traits@D@std@@V?$allocator@D@2@@std@@@?$_Tree@V?$_Tmap_traits@V?$basic_string@DU?$char_traits@D@std@@V?$allocator@D@2@@std@@PEAUggml_tensor@@U?$less@V?$basic_string@DU?$char_traits@D@std@@V?$allocator@D@2@@std@@@2@V?$allocator@U?$pair@$$CBV?$basic_string@DU?$char_traits@D@std@@V?$allocator@D@2@@std@@PEAUggml_tensor@@@std@@@2@$0A@@std@@@std@@IEBA?AU?$_Tree_find_result@PEAU?$_Tree_node@U?$pair@$$CBV?$basic_string@DU?$char_traits@D@std@@V?$allocator@D@2@@std@@PEAUggml_tensor@@@std@@PEAX@std@@@1@AEBV?$basic_string@DU?$char_traits@D@std@@V?$allocator@D@2@@1@@Z
	??$_Find_lower_bound@W4parakeet_tensor@@@?$_Tree@V?$_Tmap_traits@W4parakeet_tensor@@PEBDU?$less@W4parakeet_tensor@@@std@@V?$allocator@U?$pair@$$CBW4parakeet_tensor@@PEBD@std@@@3@$0A@@std@@@std@@IEBA?AU?$_Tree_find_result@PEAU?$_Tree_node@U?$pair@$$CBW4parakeet_tensor@@PEBD@std@@PEAX@std@@@1@AEBW4parakeet_tensor@@@Z
	??$_Find_lower_bound@W4parakeet_tensor@@@?$_Tree@V?$_Tmap_traits@W4parakeet_tensor@@W4ggml_op@@U?$less@W4parakeet_tensor@@@std@@V?$allocator@U?$pair@$$CBW4parakeet_tensor@@W4ggml_op@@@std@@@4@$0A@@std@@@std@@IEBA?AU?$_Tree_find_result@PEAU?$_Tree_node@U?$pair@$$CBW4parakeet_tensor@@W4ggml_op@@@std@@PEAX@std@@@1@AEBW4parakeet_tensor@@@Z
	??$_Find_vectorized@$$CBDD@std@@YAPEBDQEBD0D@Z
	??$_Fputc@D@std@@YA_NDPEAU_iobuf@@@Z
	??$_Freenode0@V?$allocator@U?$_Tree_node@U?$pair@$$CBHV?$basic_string@DU?$char_traits@D@std@@V?$allocator@D@2@@std@@@std@@PEAX@std@@@std@@@?$_Tree_node@U?$pair@$$CBHV?$basic_string@DU?$char_traits@D@std@@V?$allocator@D@2@@std@@@std@@PEAX@std@@SAXAEAV?$allocator@U?$_Tree_node@U?$pair@$$CBHV?$basic_string@DU?$char_traits@D@std@@V?$allocator@D@2@@std@@@std@@PEAX@std@@@1@PEAU01@@Z
	??$_Freenode0@V?$allocator@U?$_Tree_node@U?$pair@$$CBV?$basic_string@DU?$char_traits@D@std@@V?$allocator@D@2@@std@@H@std@@PEAX@std@@@std@@@?$_Tree_node@U?$pair@$$CBV?$basic_string@DU?$char_traits@D@std@@V?$allocator@D@2@@std@@H@std@@PEAX@std@@SAXAEAV?$allocator@U?$_Tree_node@U?$pair@$$CBV?$basic_string@DU?$char_traits@D@std@@V?$allocator@D@2@@std@@H@std@@PEAX@std@@@1@PEAU01@@Z
	??$_Freenode0@V?$allocator@U?$_Tree_node@U?$pair@$$CBV?$basic_string@DU?$char_traits@D@std@@V?$allocator@D@2@@std@@PEAUggml_tensor@@@std@@PEAX@std@@@std@@@?$_Tree_node@U?$pair@$$CBV?$basic_string@DU?$char_traits@D@std@@V?$allocator@D@2@@std@@PEAUggml_tensor@@@std@@PEAX@std@@SAXAEAV?$allocator@U?$_Tree_node@U?$pair@$$CBV?$basic_string@DU?$char_traits@D@std@@V?$allocator@D@2@@std@@PEAUggml_tensor@@@std@@PEAX@std@@@1@PEAU01@@Z
	??$_Freenode0@V?$allocator@U?$_Tree_node@U?$pair@$$CBW4parakeet_tensor@@PEBD@std@@PEAX@std@@@std@@@?$_Tree_node@U?$pair@$$CBW4parakeet_tensor@@PEBD@std@@PEAX@std@@SAXAEAV?$allocator@U?$_Tree_node@U?$pair@$$CBW4parakeet_tensor@@PEBD@std@@PEAX@std@@@1@PEAU01@@Z
	??$_Freenode0@V?$allocator@U?$_Tree_node@U?$pair@$$CBW4parakeet_tensor@@W4ggml_op@@@std@@PEAX@std@@@std@@@?$_Tree_node@U?$pair@$$CBW4parakeet_tensor@@W4ggml_op@@@std@@PEAX@std@@SAXAEAV?$allocator@U?$_Tree_node@U?$pair@$$CBW4parakeet_tensor@@W4ggml_op@@@std@@PEAX@std@@@1@PEAU01@@Z
	??$_Freenode0@V?$allocator@U?$_Tree_node@U?$pair@QEAUggml_backend_buffer_type@@PEAUggml_context@@@std@@PEAX@std@@@std@@@?$_Tree_node@U?$pair@QEAUggml_backend_buffer_type@@PEAUggml_context@@@std@@PEAX@std@@SAXAEAV?$allocator@U?$_Tree_node@U?$pair@QEAUggml_backend_buffer_type@@PEAUggml_context@@@std@@PEAX@std@@@1@PEAU01@@Z
	??$_Freenode@V?$allocator@U?$_Tree_node@U?$pair@$$CBHV?$basic_string@DU?$char_traits@D@std@@V?$allocator@D@2@@std@@@std@@PEAX@std@@@std@@@?$_Tree_node@U?$pair@$$CBHV?$basic_string@DU?$char_traits@D@std@@V?$allocator@D@2@@std@@@std@@PEAX@std@@SAXAEAV?$allocator@U?$_Tree_node@U?$pair@$$CBHV?$basic_string@DU?$char_traits@D@std@@V?$allocator@D@2@@std@@@std@@PEAX@std@@@1@PEAU01@@Z
	??$_Freenode@V?$allocator@U?$_Tree_node@U?$pair@$$CBV?$basic_string@DU?$char_traits@D@std@@V?$allocator@D@2@@std@@H@std@@PEAX@std@@@std@@@?$_Tree_node@U?$pair@$$CBV?$basic_string@DU?$char_traits@D@std@@V?$allocator@D@2@@std@@H@std@@PEAX@std@@SAXAEAV?$allocator@U?$_Tree_node@U?$pair@$$CBV?$basic_string@DU?$char_traits@D@std@@V?$allocator@D@2@@std@@H@std@@PEAX@std@@@1@PEAU01@@Z
	??$_Freenode@V?$allocator@U?$_Tree_node@U?$pair@$$CBV?$basic_string@DU?$char_traits@D@std@@V?$allocator@D@2@@std@@PEAUggml_tensor@@@std@@PEAX@std@@@std@@@?$_Tree_node@U?$pair@$$CBV?$basic_string@DU?$char_traits@D@std@@V?$allocator@D@2@@std@@PEAUggml_tensor@@@std@@PEAX@std@@SAXAEAV?$allocator@U?$_Tree_node@U?$pair@$$CBV?$basic_string@DU?$char_traits@D@std@@V?$allocator@D@2@@std@@PEAUggml_tensor@@@std@@PEAX@std@@@1@PEAU01@@Z
	??$_Freenode@V?$allocator@U?$_Tree_node@U?$pair@$$CBW4parakeet_tensor@@PEBD@std@@PEAX@std@@@std@@@?$_Tree_node@U?$pair@$$CBW4parakeet_tensor@@PEBD@std@@PEAX@std@@SAXAEAV?$allocator@U?$_Tree_node@U?$pair@$$CBW4parakeet_tensor@@PEBD@std@@PEAX@std@@@1@PEAU01@@Z
	??$_Freenode@V?$allocator@U?$_Tree_node@U?$pair@$$CBW4parakeet_tensor@@W4ggml_op@@@std@@PEAX@std@@@std@@@?$_Tree_node@U?$pair@$$CBW4parakeet_tensor@@W4ggml_op@@@std@@PEAX@std@@SAXAEAV?$allocator@U?$_Tree_node@U?$pair@$$CBW4parakeet_tensor@@W4ggml_op@@@std@@PEAX@std@@@1@PEAU01@@Z
	??$_Freenode@V?$allocator@U?$_Tree_node@U?$pair@QEAUggml_backend_buffer_type@@PEAUggml_context@@@std@@PEAX@std@@@std@@@?$_Tree_node@U?$pair@QEAUggml_backend_buffer_type@@PEAUggml_context@@@std@@PEAX@std@@SAXAEAV?$allocator@U?$_Tree_node@U?$pair@QEAUggml_backend_buffer_type@@PEAUggml_context@@@std@@PEAX@std@@@1@PEAU01@@Z
	??$_Get_index@$0A@@id@locale@std@@QEAA_KXZ
	??$_Get_proxy_allocator@V?$allocator@D@std@@@std@@YA?AU_Fake_allocator@0@AEBV?$allocator@D@0@@Z
	??$_Get_proxy_allocator@V?$allocator@E@std@@@std@@YA?AU_Fake_allocator@0@AEBV?$allocator@E@0@@Z
	??$_Get_proxy_allocator@V?$allocator@H@std@@@std@@YA?AU_Fake_allocator@0@AEBV?$allocator@H@0@@Z
	??$_Get_proxy_allocator@V?$allocator@I@std@@@std@@YA?AU_Fake_allocator@0@AEBV?$allocator@I@0@@Z
	??$_Get_proxy_allocator@V?$allocator@M@std@@@std@@YA?AU_Fake_allocator@0@AEBV?$allocator@M@0@@Z
	??$_Get_proxy_allocator@V?$allocator@PEAUggml_backend@@@std@@@std@@YA?AU_Fake_allocator@0@AEBV?$allocator@PEAUggml_backend@@@0@@Z
	??$_Get_proxy_allocator@V?$allocator@PEAUggml_backend_buffer@@@std@@@std@@YA?AU_Fake_allocator@0@AEBV?$allocator@PEAUggml_backend_buffer@@@0@@Z
	??$_Get_proxy_allocator@V?$allocator@PEAUggml_context@@@std@@@std@@YA?AU_Fake_allocator@0@AEBV?$allocator@PEAUggml_context@@@0@@Z
	??$_Get_proxy_allocator@V?$allocator@U?$_Tree_node@U?$pair@$$CBHV?$basic_string@DU?$char_traits@D@std@@V?$allocator@D@2@@std@@@std@@PEAX@std@@@std@@@std@@YA?AU_Fake_allocator@0@AEBV?$allocator@U?$_Tree_node@U?$pair@$$CBHV?$basic_string@DU?$char_traits@D@std@@V?$allocator@D@2@@std@@@std@@PEAX@std@@@0@@Z
	??$_Get_proxy_allocator@V?$allocator@U?$_Tree_node@U?$pair@$$CBV?$basic_string@DU?$char_traits@D@std@@V?$allocator@D@2@@std@@H@std@@PEAX@std@@@std@@@std@@YA?AU_Fake_allocator@0@AEBV?$allocator@U?$_Tree_node@U?$pair@$$CBV?$basic_string@DU?$char_traits@D@std@@V?$allocator@D@2@@std@@H@std@@PEAX@std@@@0@@Z
	??$_Get_proxy_allocator@V?$allocator@U?$_Tree_node@U?$pair@$$CBV?$basic_string@DU?$char_traits@D@std@@V?$allocator@D@2@@std@@PEAUggml_tensor@@@std@@PEAX@std@@@std@@@std@@YA?AU_Fake_allocator@0@AEBV?$allocator@U?$_Tree_node@U?$pair@$$CBV?$basic_string@DU?$char_traits@D@std@@V?$allocator@D@2@@std@@PEAUggml_tensor@@@std@@PEAX@std@@@0@@Z
	??$_Get_proxy_allocator@V?$allocator@U?$_Tree_node@U?$pair@$$CBW4parakeet_tensor@@PEBD@std@@PEAX@std@@@std@@@std@@YA?AU_Fake_allocator@0@AEBV?$allocator@U?$_Tree_node@U?$pair@$$CBW4parakeet_tensor@@PEBD@std@@PEAX@std@@@0@@Z
	??$_Get_proxy_allocator@V?$allocator@U?$_Tree_node@U?$pair@$$CBW4parakeet_tensor@@W4ggml_op@@@std@@PEAX@std@@@std@@@std@@YA?AU_Fake_allocator@0@AEBV?$allocator@U?$_Tree_node@U?$pair@$$CBW4parakeet_tensor@@W4ggml_op@@@std@@PEAX@std@@@0@@Z
	??$_Get_proxy_allocator@V?$allocator@U?$_Tree_node@U?$pair@QEAUggml_backend_buffer_type@@PEAUggml_context@@@std@@PEAX@std@@@std@@@std@@YA?AU_Fake_allocator@0@AEBV?$allocator@U?$_Tree_node@U?$pair@QEAUggml_backend_buffer_type@@PEAUggml_context@@@std@@PEAX@std@@@0@@Z
	??$_Get_proxy_allocator@V?$allocator@U?$pair@PEAUggml_backend_device@@PEAUggml_backend_buffer_type@@@std@@@std@@@std@@YA?AU_Fake_allocator@0@AEBV?$allocator@U?$pair@PEAUggml_backend_device@@PEAUggml_backend_buffer_type@@@std@@@0@@Z
	??$_Get_proxy_allocator@V?$allocator@Uparakeet_layer_encoder@@@std@@@std@@YA?AU_Fake_allocator@0@AEBV?$allocator@Uparakeet_layer_encoder@@@0@@Z
	??$_Get_proxy_allocator@V?$allocator@Uparakeet_lsmt_layer@@@std@@@std@@YA?AU_Fake_allocator@0@AEBV?$allocator@Uparakeet_lsmt_layer@@@0@@Z
	??$_Get_proxy_allocator@V?$allocator@Uparakeet_lstm_state_layer@@@std@@@std@@YA?AU_Fake_allocator@0@AEBV?$allocator@Uparakeet_lstm_state_layer@@@0@@Z
	??$_Get_proxy_allocator@V?$allocator@Uparakeet_segment@@@std@@@std@@YA?AU_Fake_allocator@0@AEBV?$allocator@Uparakeet_segment@@@0@@Z
	??$_Get_proxy_allocator@V?$allocator@Uparakeet_token_data@@@std@@@std@@YA?AU_Fake_allocator@0@AEBV?$allocator@Uparakeet_token_data@@@0@@Z
	??$_Get_proxy_allocator@V?$allocator@Vthread@std@@@std@@@std@@YA?AU_Fake_allocator@0@AEBV?$allocator@Vthread@std@@@0@@Z
	??$_Get_proxy_allocator@V?$allocator@_W@std@@@std@@YA?AU_Fake_allocator@0@AEBV?$allocator@_W@0@@Z
	??$_Get_size_of_n@$00@std@@YA_K_K@Z
	??$_Get_size_of_n@$01@std@@YA_K_K@Z
	??$_Get_size_of_n@$03@std@@YA_K_K@Z
	??$_Get_size_of_n@$07@std@@YA_K_K@Z
	??$_Get_size_of_n@$0BA@@std@@YA_K_K@Z
	??$_Get_size_of_n@$0BI@@std@@YA_K_K@Z
	??$_Get_size_of_n@$0CI@@std@@YA_K_K@Z
	??$_Get_size_of_n@$0DA@@std@@YA_K_K@Z
	??$_Get_size_of_n@$0EI@@std@@YA_K_K@Z
	??$_Get_size_of_n@$0OI@@std@@YA_K_K@Z
	??$_Get_unwrapped@AEAPEBM@std@@YA?A_TAEAPEBM@Z
	??$_Get_unwrapped@AEAV?$_Vector_iterator@V?$_Vector_val@U?$_Simple_types@M@std@@@std@@@std@@@std@@YA?A_TAEAV?$_Vector_iterator@V?$_Vector_val@U?$_Simple_types@M@std@@@std@@@0@@Z
	??$_Get_unwrapped@AEBQEAD@std@@YA?A_TAEBQEAD@Z
	??$_Get_unwrapped@AEBQEAE@std@@YA?A_TAEBQEAE@Z
	??$_Get_unwrapped@AEBQEAH@std@@YA?A_TAEBQEAH@Z
	??$_Get_unwrapped@AEBQEAI@std@@YA?A_TAEBQEAI@Z
	??$_Get_unwrapped@AEBQEAM@std@@YA?A_TAEBQEAM@Z
	??$_Get_unwrapped@AEBQEAPEAUggml_backend@@@std@@YA?A_TAEBQEAPEAUggml_backend@@@Z
	??$_Get_unwrapped@AEBQEAPEAUggml_backend_buffer@@@std@@YA?A_TAEBQEAPEAUggml_backend_buffer@@@Z
	??$_Get_unwrapped@AEBQEAPEAUggml_context@@@std@@YA?A_TAEBQEAPEAUggml_context@@@Z
	??$_Get_unwrapped@AEBQEAU?$pair@PEAUggml_backend_device@@PEAUggml_backend_buffer_type@@@std@@@std@@YA?A_TAEBQEAU?$pair@PEAUggml_backend_device@@PEAUggml_backend_buffer_type@@@0@@Z
	??$_Get_unwrapped@AEBQEAUparakeet_layer_encoder@@@std@@YA?A_TAEBQEAUparakeet_layer_encoder@@@Z
	??$_Get_unwrapped@AEBQEAUparakeet_lsmt_layer@@@std@@YA?A_TAEBQEAUparakeet_lsmt_layer@@@Z
	??$_Get_unwrapped@AEBQEAUparakeet_lstm_state_layer@@@std@@YA?A_TAEBQEAUparakeet_lstm_state_layer@@@Z
	??$_Get_unwrapped@AEBQEAUparakeet_segment@@@std@@YA?A_TAEBQEAUparakeet_segment@@@Z
	??$_Get_unwrapped@AEBQEAUparakeet_token_data@@@std@@YA?A_TAEBQEAUparakeet_token_data@@@Z
	??$_Get_unwrapped@AEBV?$_Vector_iterator@V?$_Vector_val@U?$_Simple_types@M@std@@@std@@@std@@@std@@YA?A_TAEBV?$_Vector_iterator@V?$_Vector_val@U?$_Simple_types@M@std@@@std@@@0@@Z
	??$_Get_unwrapped@PEAPEAUggml_backend@@@std@@YA?A_T$$QEAPEAPEAUggml_backend@@@Z
	??$_Get_unwrapped@PEAU?$pair@PEAUggml_backend_device@@PEAUggml_backend_buffer_type@@@std@@@std@@YA?A_T$$QEAPEAU?$pair@PEAUggml_backend_device@@PEAUggml_backend_buffer_type@@@0@@Z
	??$_Get_unwrapped@PEAUparakeet_token_data@@@std@@YA?A_T$$QEAPEAUparakeet_token_data@@@Z
	??$_Get_unwrapped@PEBM@std@@YA?A_T$$QEAPEBM@Z
	??$_Get_unwrapped_n@V?$_Vector_iterator@V?$_Vector_val@U?$_Simple_types@M@std@@@std@@@std@@_J@std@@YA?A_T$$QEAV?$_Vector_iterator@V?$_Vector_val@U?$_Simple_types@M@std@@@std@@@0@_J@Z
	??$_Getvals@_W@?$time_get@DV?$istreambuf_iterator@DU?$char_traits@D@std@@@std@@@std@@IEAAX_WAEBV_Locinfo@1@@Z
	??$_Getvals@_W@?$time_get@_WV?$istreambuf_iterator@_WU?$char_traits@_W@std@@@std@@@std@@IEAAX_WAEBV_Locinfo@1@@Z
	??$_Idl_distance@V?$_Vector_iterator@V?$_Vector_val@U?$_Simple_types@M@std@@@std@@@std@@PEAM@std@@YA?A_PAEBQEAM0@Z
	??$_Insert_range_unchecked@PEBU?$pair@$$CBW4parakeet_tensor@@PEBD@std@@PEBU12@@?$_Tree@V?$_Tmap_traits@W4parakeet_tensor@@PEBDU?$less@W4parakeet_tensor@@@std@@V?$allocator@U?$pair@$$CBW4parakeet_tensor@@PEBD@std@@@3@$0A@@std@@@std@@IEAAXPEBU?$pair@$$CBW4parakeet_tensor@@PEBD@1@QEBU21@@Z
	??$_Insert_range_unchecked@PEBU?$pair@$$CBW4parakeet_tensor@@W4ggml_op@@@std@@PEBU12@@?$_Tree@V?$_Tmap_traits@W4parakeet_tensor@@W4ggml_op@@U?$less@W4parakeet_tensor@@@std@@V?$allocator@U?$pair@$$CBW4parakeet_tensor@@W4ggml_op@@@std@@@4@$0A@@std@@@std@@IEAAXPEBU?$pair@$$CBW4parakeet_tensor@@W4ggml_op@@@1@QEBU21@@Z
	??$_Invoke@V?$tuple@P6AXUmel_worker_params@@PEBMAEBV?$vector@MV?$allocator@M@std@@@std@@AEBUparakeet_filters@@AEAUparakeet_mel@@AEBUparakeet_mel_cache@@@ZU1@PEBMV?$reference_wrapper@$$CBV?$vector@MV?$allocator@M@std@@@std@@@3@V?$reference_wrapper@$$CBUparakeet_filters@@@3@V?$reference_wrapper@Uparakeet_mel@@@3@V?$reference_wrapper@$$CBUparakeet_mel_cache@@@3@@std@@$0A@$00$01$02$03$04$05@thread@std@@CAIPEAX@Z
	??$_Is_all_bits_zero@M@std@@YA_NAEBM@Z
	??$_Kfn@$$CBHV?$basic_string@DU?$char_traits@D@std@@V?$allocator@D@2@@std@@@?$_Tmap_traits@HV?$basic_string@DU?$char_traits@D@std@@V?$allocator@D@2@@std@@U?$less@H@2@V?$allocator@U?$pair@$$CBHV?$basic_string@DU?$char_traits@D@std@@V?$allocator@D@2@@std@@@std@@@2@$0A@@std@@SAAEBHAEBU?$pair@$$CBHV?$basic_string@DU?$char_traits@D@std@@V?$allocator@D@2@@std@@@1@@Z
	??$_Kfn@$$CBV?$basic_string@DU?$char_traits@D@std@@V?$allocator@D@2@@std@@H@?$_Tmap_traits@V?$basic_string@DU?$char_traits@D@std@@V?$allocator@D@2@@std@@HU?$less@V?$basic_string@DU?$char_traits@D@std@@V?$allocator@D@2@@std@@@2@V?$allocator@U?$pair@$$CBV?$basic_string@DU?$char_traits@D@std@@V?$allocator@D@2@@std@@H@std@@@2@$0A@@std@@SAAEBV?$basic_string@DU?$char_traits@D@std@@V?$allocator@D@2@@1@AEBU?$pair@$$CBV?$basic_string@DU?$char_traits@D@std@@V?$allocator@D@2@@std@@H@1@@Z
	??$_Kfn@$$CBV?$basic_string@DU?$char_traits@D@std@@V?$allocator@D@2@@std@@PEAUggml_tensor@@@?$_Tmap_traits@V?$basic_string@DU?$char_traits@D@std@@V?$allocator@D@2@@std@@PEAUggml_tensor@@U?$less@V?$basic_string@DU?$char_traits@D@std@@V?$allocator@D@2@@std@@@2@V?$allocator@U?$pair@$$CBV?$basic_string@DU?$char_traits@D@std@@V?$allocator@D@2@@std@@PEAUggml_tensor@@@std@@@2@$0A@@std@@SAAEBV?$basic_string@DU?$char_traits@D@std@@V?$allocator@D@2@@1@AEBU?$pair@$$CBV?$basic_string@DU?$char_traits@D@std@@V?$allocator@D@2@@std@@PEAUggml_tensor@@@1@@Z
	??$_Kfn@$$CBW4parakeet_tensor@@PEBD@?$_Tmap_traits@W4parakeet_tensor@@PEBDU?$less@W4parakeet_tensor@@@std@@V?$allocator@U?$pair@$$CBW4parakeet_tensor@@PEBD@std@@@3@$0A@@std@@SAAEBW4parakeet_tensor@@AEBU?$pair@$$CBW4parakeet_tensor@@PEBD@1@@Z
	??$_Kfn@$$CBW4parakeet_tensor@@W4ggml_op@@@?$_Tmap_traits@W4parakeet_tensor@@W4ggml_op@@U?$less@W4parakeet_tensor@@@std@@V?$allocator@U?$pair@$$CBW4parakeet_tensor@@W4ggml_op@@@std@@@4@$0A@@std@@SAAEBW4parakeet_tensor@@AEBU?$pair@$$CBW4parakeet_tensor@@W4ggml_op@@@1@@Z
	??$_Kfn@QEAUggml_backend_buffer_type@@PEAUggml_context@@@?$_Tmap_traits@PEAUggml_backend_buffer_type@@PEAUggml_context@@U?$less@PEAUggml_backend_buffer_type@@@std@@V?$allocator@U?$pair@QEAUggml_backend_buffer_type@@PEAUggml_context@@@std@@@4@$0A@@std@@SAAEBQEAUggml_backend_buffer_type@@AEBU?$pair@QEAUggml_backend_buffer_type@@PEAUggml_context@@@1@@Z
	??$_Lower_bound_duplicate@H@?$_Tree@V?$_Tmap_traits@HV?$basic_string@DU?$char_traits@D@std@@V?$allocator@D@2@@std@@U?$less@H@2@V?$allocator@U?$pair@$$CBHV?$basic_string@DU?$char_traits@D@std@@V?$allocator@D@2@@std@@@std@@@2@$0A@@std@@@std@@IEBA_NQEAU?$_Tree_node@U?$pair@$$CBHV?$basic_string@DU?$char_traits@D@std@@V?$allocator@D@2@@std@@@std@@PEAX@1@AEBH@Z
	??$_Lower_bound_duplicate@PEAUggml_backend_buffer_type@@@?$_Tree@V?$_Tmap_traits@PEAUggml_backend_buffer_type@@PEAUggml_context@@U?$less@PEAUggml_backend_buffer_type@@@std@@V?$allocator@U?$pair@QEAUggml_backend_buffer_type@@PEAUggml_context@@@std@@@4@$0A@@std@@@std@@IEBA_NQEAU?$_Tree_node@U?$pair@QEAUggml_backend_buffer_type@@PEAUggml_context@@@std@@PEAX@1@AEBQEAUggml_backend_buffer_type@@@Z
	??$_Lower_bound_duplicate@V?$basic_string@DU?$char_traits@D@std@@V?$allocator@D@2@@std@@@?$_Tree@V?$_Tmap_traits@V?$basic_string@DU?$char_traits@D@std@@V?$allocator@D@2@@std@@HU?$less@V?$basic_string@DU?$char_traits@D@std@@V?$allocator@D@2@@std@@@2@V?$allocator@U?$pair@$$CBV?$basic_string@DU?$char_traits@D@std@@V?$allocator@D@2@@std@@H@std@@@2@$0A@@std@@@std@@IEBA_NQEAU?$_Tree_node@U?$pair@$$CBV?$basic_string@DU?$char_traits@D@std@@V?$allocator@D@2@@std@@H@std@@PEAX@1@AEBV?$basic_string@DU?$char_traits@D@std@@V?$allocator@D@2@@1@@Z
	??$_Lower_bound_duplicate@V?$basic_string@DU?$char_traits@D@std@@V?$allocator@D@2@@std@@@?$_Tree@V?$_Tmap_traits@V?$basic_string@DU?$char_traits@D@std@@V?$allocator@D@2@@std@@PEAUggml_tensor@@U?$less@V?$basic_string@DU?$char_traits@D@std@@V?$allocator@D@2@@std@@@2@V?$allocator@U?$pair@$$CBV?$basic_string@DU?$char_traits@D@std@@V?$allocator@D@2@@std@@PEAUggml_tensor@@@std@@@2@$0A@@std@@@std@@IEBA_NQEAU?$_Tree_node@U?$pair@$$CBV?$basic_string@DU?$char_traits@D@std@@V?$allocator@D@2@@std@@PEAUggml_tensor@@@std@@PEAX@1@AEBV?$basic_string@DU?$char_traits@D@std@@V?$allocator@D@2@@1@@Z
	??$_Lower_bound_duplicate@W4parakeet_tensor@@@?$_Tree@V?$_Tmap_traits@W4parakeet_tensor@@PEBDU?$less@W4parakeet_tensor@@@std@@V?$allocator@U?$pair@$$CBW4parakeet_tensor@@PEBD@std@@@3@$0A@@std@@@std@@IEBA_NQEAU?$_Tree_node@U?$pair@$$CBW4parakeet_tensor@@PEBD@std@@PEAX@1@AEBW4parakeet_tensor@@@Z
	??$_Lower_bound_duplicate@W4parakeet_tensor@@@?$_Tree@V?$_Tmap_traits@W4parakeet_tensor@@W4ggml_op@@U?$less@W4parakeet_tensor@@@std@@V?$allocator@U?$pair@$$CBW4parakeet_tensor@@W4ggml_op@@@std@@@4@$0A@@std@@@std@@IEBA_NQEAU?$_Tree_node@U?$pair@$$CBW4parakeet_tensor@@W4ggml_op@@@std@@PEAX@1@AEBW4parakeet_tensor@@@Z
	??$_Max_limit@_J@std@@YA_JXZ
	??$_Min_element_unchecked@PEBHU?$less@X@std@@@std@@YAPEBHPEBH0U?$less@X@0@@Z
	??$_Min_element_vectorized@$$CBH@std@@YAPEBHQEBH0@Z
	??$_Min_vectorized@$$CBH@std@@YA?A_PQEBH0@Z
	??$_Pass_fn@U?$less@X@std@@@std@@YA?A_PAEAU?$less@X@0@@Z
	??$_Pocca@V?$allocator@D@std@@@std@@YAXAEAV?$allocator@D@0@AEBV10@@Z
	??$_Pocca@V?$allocator@Uparakeet_token_data@@@std@@@std@@YAXAEAV?$allocator@Uparakeet_token_data@@@0@AEBV10@@Z
	??$_Pocma@V?$allocator@D@std@@@std@@YAXAEAV?$allocator@D@0@0@Z
	??$_Pocma@V?$allocator@PEAUggml_backend@@@std@@@std@@YAXAEAV?$allocator@PEAUggml_backend@@@0@0@Z
	??$_Reallocate@$0A@@?$vector@DV?$allocator@D@std@@@std@@AEAAXAEA_K@Z
	??$_Reallocate@$0A@@?$vector@MV?$allocator@M@std@@@std@@AEAAXAEA_K@Z
	??$_Reallocate_for@V<lambda_a132b9f505f015b07a26cb4edca31da2>@@PEBD@?$basic_string@DU?$char_traits@D@std@@V?$allocator@D@2@@std@@AEAAAEAV01@_KV<lambda_a132b9f505f015b07a26cb4edca31da2>@@PEBD@Z
	??$_Reallocate_grow_by@V<lambda_25953b27f3c43b57ba59f021c7f225c5>@@_W@?$basic_string@_WU?$char_traits@_W@std@@V?$allocator@_W@2@@std@@AEAAAEAV01@_KV<lambda_25953b27f3c43b57ba59f021c7f225c5>@@_W@Z
	??$_Reallocate_grow_by@V<lambda_319d5e083f45f90dcdce5dce53cbb275>@@D@?$basic_string@DU?$char_traits@D@std@@V?$allocator@D@2@@std@@AEAAAEAV01@_KV<lambda_319d5e083f45f90dcdce5dce53cbb275>@@D@Z
	??$_Reallocate_grow_by@V<lambda_6e107f859707de1a71dcca60860853b1>@@PEBD_K@?$basic_string@DU?$char_traits@D@std@@V?$allocator@D@2@@std@@AEAAAEAV01@_KV<lambda_6e107f859707de1a71dcca60860853b1>@@PEBD_K@Z
	??$_Reallocate_grow_by@V<lambda_9013ee9e23efe4882b67eff5b0ecf103>@@$$V@?$basic_string@DU?$char_traits@D@std@@V?$allocator@D@2@@std@@AEAAAEAV01@_KV<lambda_9013ee9e23efe4882b67eff5b0ecf103>@@@Z
	??$_Reallocate_grow_by@V<lambda_942448a5eca1a40cdf35e7a483deabf2>@@PEB_W_K@?$basic_string@_WU?$char_traits@_W@std@@V?$allocator@_W@2@@std@@AEAAAEAV01@_KV<lambda_942448a5eca1a40cdf35e7a483deabf2>@@PEB_W_K@Z
	??$_Reallocate_grow_by@V<lambda_a3050a43f3157934f354774ab3dd2e02>@@_K_W@?$basic_string@_WU?$char_traits@_W@std@@V?$allocator@_W@2@@std@@AEAAAEAV01@_KV<lambda_a3050a43f3157934f354774ab3dd2e02>@@_K_W@Z
	??$_Refancy_maybe_null@PEAM$0A@@std@@YAPEAMPEAM@Z
	??$_Resize@U_Value_init_tag@std@@@?$vector@DV?$allocator@D@std@@@std@@AEAAX_KAEBU_Value_init_tag@1@@Z
	??$_Resize@U_Value_init_tag@std@@@?$vector@EV?$allocator@E@std@@@std@@AEAAX_KAEBU_Value_init_tag@1@@Z
	??$_Resize@U_Value_init_tag@std@@@?$vector@IV?$allocator@I@std@@@std@@AEAAX_KAEBU_Value_init_tag@1@@Z
	??$_Resize@U_Value_init_tag@std@@@?$vector@MV?$allocator@M@std@@@std@@AEAAX_KAEBU_Value_init_tag@1@@Z
	??$_Resize@U_Value_init_tag@std@@@?$vector@Uparakeet_layer_encoder@@V?$allocator@Uparakeet_layer_encoder@@@std@@@std@@AEAAX_KAEBU_Value_init_tag@1@@Z
	??$_Resize@U_Value_init_tag@std@@@?$vector@Uparakeet_lsmt_layer@@V?$allocator@Uparakeet_lsmt_layer@@@std@@@std@@AEAAX_KAEBU_Value_init_tag@1@@Z
	??$_Resize@U_Value_init_tag@std@@@?$vector@Uparakeet_lstm_state_layer@@V?$allocator@Uparakeet_lstm_state_layer@@@std@@@std@@AEAAX_KAEBU_Value_init_tag@1@@Z
	??$_Resize_reallocate@U_Value_init_tag@std@@@?$vector@DV?$allocator@D@std@@@std@@AEAAX_KAEBU_Value_init_tag@1@@Z
	??$_Resize_reallocate@U_Value_init_tag@std@@@?$vector@EV?$allocator@E@std@@@std@@AEAAX_KAEBU_Value_init_tag@1@@Z
	??$_Resize_reallocate@U_Value_init_tag@std@@@?$vector@IV?$allocator@I@std@@@std@@AEAAX_KAEBU_Value_init_tag@1@@Z
	??$_Resize_reallocate@U_Value_init_tag@std@@@?$vector@MV?$allocator@M@std@@@std@@AEAAX_KAEBU_Value_init_tag@1@@Z
	??$_Resize_reallocate@U_Value_init_tag@std@@@?$vector@Uparakeet_layer_encoder@@V?$allocator@Uparakeet_layer_encoder@@@std@@@std@@AEAAX_KAEBU_Value_init_tag@1@@Z
	??$_Resize_reallocate@U_Value_init_tag@std@@@?$vector@Uparakeet_lsmt_layer@@V?$allocator@Uparakeet_lsmt_layer@@@std@@@std@@AEAAX_KAEBU_Value_init_tag@1@@Z
	??$_Resize_reallocate@U_Value_init_tag@std@@@?$vector@Uparakeet_lstm_state_layer@@V?$allocator@Uparakeet_lstm_state_layer@@@std@@@std@@AEAAX_KAEBU_Value_init_tag@1@@Z
	??$_Search_vectorized@$$CBD$$CBD@std@@YAPEBDQEBD00_K@Z
	??$_Seek_wrapped@V?$_Vector_iterator@V?$_Vector_val@U?$_Simple_types@M@std@@@std@@@std@@PEAM@std@@YAXAEAV?$_Vector_iterator@V?$_Vector_val@U?$_Simple_types@M@std@@@std@@@0@$$QEAPEAM@Z
	??$_Start@A6AXUmel_worker_params@@PEBMAEBV?$vector@MV?$allocator@M@std@@@std@@AEBUparakeet_filters@@AEAUparakeet_mel@@AEBUparakeet_mel_cache@@@ZAEAU1@AEAPEBMV?$reference_wrapper@$$CBV?$vector@MV?$allocator@M@std@@@std@@@3@V?$reference_wrapper@$$CBUparakeet_filters@@@3@V?$reference_wrapper@Uparakeet_mel@@@3@V?$reference_wrapper@$$CBUparakeet_mel_cache@@@3@@thread@std@@AEAAXA6AXUmel_worker_params@@PEBMAEBV?$vector@MV?$allocator@M@std@@@1@AEBUparakeet_filters@@AEAUparakeet_mel@@AEBUparakeet_mel_cache@@@ZAEAU2@AEAPEBM$$QEAV?$reference_wrapper@$$CBV?$vector@MV?$allocator@M@std@@@std@@@1@$$QEAV?$reference_wrapper@$$CBUparakeet_filters@@@1@$$QEAV?$reference_wrapper@Uparakeet_mel@@@1@$$QEAV?$reference_wrapper@$$CBUparakeet_mel_cache@@@1@@Z
	??$_To_address@PEAD@std@@YA?A_PAEBQEAD@Z
	??$_To_address@PEAE@std@@YA?A_PAEBQEAE@Z
	??$_To_address@PEAH@std@@YA?A_PAEBQEAH@Z
	??$_To_address@PEAI@std@@YA?A_PAEBQEAI@Z
	??$_To_address@PEAM@std@@YA?A_PAEBQEAM@Z
	??$_To_address@PEAPEAUggml_backend@@@std@@YA?A_PAEBQEAPEAUggml_backend@@@Z
	??$_To_address@PEAPEAUggml_backend_buffer@@@std@@YA?A_PAEBQEAPEAUggml_backend_buffer@@@Z
	??$_To_address@PEAPEAUggml_context@@@std@@YA?A_PAEBQEAPEAUggml_context@@@Z
	??$_To_address@PEAU?$pair@PEAUggml_backend_device@@PEAUggml_backend_buffer_type@@@std@@@std@@YA?A_PAEBQEAU?$pair@PEAUggml_backend_device@@PEAUggml_backend_buffer_type@@@0@@Z
	??$_To_address@PEAUparakeet_layer_encoder@@@std@@YA?A_PAEBQEAUparakeet_layer_encoder@@@Z
	??$_To_address@PEAUparakeet_lsmt_layer@@@std@@YA?A_PAEBQEAUparakeet_lsmt_layer@@@Z
	??$_To_address@PEAUparakeet_lstm_state_layer@@@std@@YA?A_PAEBQEAUparakeet_lstm_state_layer@@@Z
	??$_To_address@PEAUparakeet_token_data@@@std@@YA?A_PAEBQEAUparakeet_token_data@@@Z
	??$_To_address@PEBH@std@@YA?A_PAEBQEBH@Z
	??$_To_address@PEBM@std@@YA?A_PAEBQEBM@Z
	??$_Traits_compare@U?$char_traits@D@std@@@std@@YAHQEBD_K01@Z
	??$_Traits_copy_batch@U?$char_traits@D@std@@D@std@@YAXQEADQEBD_K@Z
	??$_Traits_copy_batch@U?$char_traits@_W@std@@_W@std@@YAXQEA_WQEB_W_K@Z
	??$_Traits_equal@U?$char_traits@D@std@@@std@@YA_NQEBD_K01@Z
	??$_Traits_find@U?$char_traits@D@std@@@std@@YA_KQEBD_K101@Z
	??$_Traits_find_ch@U?$char_traits@D@std@@@std@@YA_KQEBD_K1D@Z
	??$_Traits_move_batch@U?$char_traits@D@std@@D@std@@YAXQEADQEBD_K@Z
	??$_Traits_move_batch@U?$char_traits@_W@std@@_W@std@@YAXQEA_WQEB_W_K@Z
	??$_Try_emplace@AEBH$$V@?$map@HV?$basic_string@DU?$char_traits@D@std@@V?$allocator@D@2@@std@@U?$less@H@2@V?$allocator@U?$pair@$$CBHV?$basic_string@DU?$char_traits@D@std@@V?$allocator@D@2@@std@@@std@@@2@@std@@AEAA?AU?$pair@PEAU?$_Tree_node@U?$pair@$$CBHV?$basic_string@DU?$char_traits@D@std@@V?$allocator@D@2@@std@@@std@@PEAX@std@@_N@1@AEBH@Z
	??$_Try_emplace@AEBQEAUggml_backend_buffer_type@@$$V@?$map@PEAUggml_backend_buffer_type@@PEAUggml_context@@U?$less@PEAUggml_backend_buffer_type@@@std@@V?$allocator@U?$pair@QEAUggml_backend_buffer_type@@PEAUggml_context@@@std@@@4@@std@@AEAA?AU?$pair@PEAU?$_Tree_node@U?$pair@QEAUggml_backend_buffer_type@@PEAUggml_context@@@std@@PEAX@std@@_N@1@AEBQEAUggml_backend_buffer_type@@@Z
	??$_Try_emplace@AEBV?$basic_string@DU?$char_traits@D@std@@V?$allocator@D@2@@std@@$$V@?$map@V?$basic_string@DU?$char_traits@D@std@@V?$allocator@D@2@@std@@HU?$less@V?$basic_string@DU?$char_traits@D@std@@V?$allocator@D@2@@std@@@2@V?$allocator@U?$pair@$$CBV?$basic_string@DU?$char_traits@D@std@@V?$allocator@D@2@@std@@H@std@@@2@@std@@AEAA?AU?$pair@PEAU?$_Tree_node@U?$pair@$$CBV?$basic_string@DU?$char_traits@D@std@@V?$allocator@D@2@@std@@H@std@@PEAX@std@@_N@1@AEBV?$basic_string@DU?$char_traits@D@std@@V?$allocator@D@2@@1@@Z
	??$_Try_emplace@AEBV?$basic_string@DU?$char_traits@D@std@@V?$allocator@D@2@@std@@$$V@?$map@V?$basic_string@DU?$char_traits@D@std@@V?$allocator@D@2@@std@@PEAUggml_tensor@@U?$less@V?$basic_string@DU?$char_traits@D@std@@V?$allocator@D@2@@std@@@2@V?$allocator@U?$pair@$$CBV?$basic_string@DU?$char_traits@D@std@@V?$allocator@D@2@@std@@PEAUggml_tensor@@@std@@@2@@std@@AEAA?AU?$pair@PEAU?$_Tree_node@U?$pair@$$CBV?$basic_string@DU?$char_traits@D@std@@V?$allocator@D@2@@std@@PEAUggml_tensor@@@std@@PEAX@std@@_N@1@AEBV?$basic_string@DU?$char_traits@D@std@@V?$allocator@D@2@@1@@Z
	??$_Try_emplace@V?$basic_string@DU?$char_traits@D@std@@V?$allocator@D@2@@std@@$$V@?$map@V?$basic_string@DU?$char_traits@D@std@@V?$allocator@D@2@@std@@HU?$less@V?$basic_string@DU?$char_traits@D@std@@V?$allocator@D@2@@std@@@2@V?$allocator@U?$pair@$$CBV?$basic_string@DU?$char_traits@D@std@@V?$allocator@D@2@@std@@H@std@@@2@@std@@AEAA?AU?$pair@PEAU?$_Tree_node@U?$pair@$$CBV?$basic_string@DU?$char_traits@D@std@@V?$allocator@D@2@@std@@H@std@@PEAX@std@@_N@1@$$QEAV?$basic_string@DU?$char_traits@D@std@@V?$allocator@D@2@@1@@Z
	??$_Try_emplace@V?$basic_string@DU?$char_traits@D@std@@V?$allocator@D@2@@std@@$$V@?$map@V?$basic_string@DU?$char_traits@D@std@@V?$allocator@D@2@@std@@PEAUggml_tensor@@U?$less@V?$basic_string@DU?$char_traits@D@std@@V?$allocator@D@2@@std@@@2@V?$allocator@U?$pair@$$CBV?$basic_string@DU?$char_traits@D@std@@V?$allocator@D@2@@std@@PEAUggml_tensor@@@std@@@2@@std@@AEAA?AU?$pair@PEAU?$_Tree_node@U?$pair@$$CBV?$basic_string@DU?$char_traits@D@std@@V?$allocator@D@2@@std@@PEAUggml_tensor@@@std@@PEAX@std@@_N@1@$$QEAV?$basic_string@DU?$char_traits@D@std@@V?$allocator@D@2@@1@@Z
	??$_Tuple_get@$0A@$$QEAV?$basic_string@DU?$char_traits@D@std@@V?$allocator@D@2@@std@@@std@@YA$$QEA_P$$QEAV?$tuple@$$QEAV?$basic_string@DU?$char_traits@D@std@@V?$allocator@D@2@@std@@@0@@Z
	??$_Tuple_get@$0A@AEBH@std@@YA$$QEA_P$$QEAV?$tuple@AEBH@0@@Z
	??$_Tuple_get@$0A@AEBQEAUggml_backend_buffer_type@@@std@@YA$$QEA_P$$QEAV?$tuple@AEBQEAUggml_backend_buffer_type@@@0@@Z
	??$_Tuple_get@$0A@AEBV?$basic_string@DU?$char_traits@D@std@@V?$allocator@D@2@@std@@@std@@YA$$QEA_P$$QEAV?$tuple@AEBV?$basic_string@DU?$char_traits@D@std@@V?$allocator@D@2@@std@@@0@@Z
	??$_Unfancy@D@std@@YAPEADPEAD@Z
	??$_Unfancy@E@std@@YAPEAEPEAE@Z
	??$_Unfancy@H@std@@YAPEAHPEAH@Z
	??$_Unfancy@I@std@@YAPEAIPEAI@Z
	??$_Unfancy@M@std@@YAPEAMPEAM@Z
	??$_Unfancy@PEAUggml_backend@@@std@@YAPEAPEAUggml_backend@@PEAPEAU1@@Z
	??$_Unfancy@PEAUggml_backend_buffer@@@std@@YAPEAPEAUggml_backend_buffer@@PEAPEAU1@@Z
	??$_Unfancy@PEAUggml_context@@@std@@YAPEAPEAUggml_context@@PEAPEAU1@@Z
	??$_Unfancy@U?$pair@PEAUggml_backend_device@@PEAUggml_backend_buffer_type@@@std@@@std@@YAPEAU?$pair@PEAUggml_backend_device@@PEAUggml_backend_buffer_type@@@0@PEAU10@@Z
	??$_Unfancy@Uparakeet_layer_encoder@@@std@@YAPEAUparakeet_layer_encoder@@PEAU1@@Z
	??$_Unfancy@Uparakeet_lsmt_layer@@@std@@YAPEAUparakeet_lsmt_layer@@PEAU1@@Z
	??$_Unfancy@Uparakeet_lstm_state_layer@@@std@@YAPEAUparakeet_lstm_state_layer@@PEAU1@@Z
	??$_Unfancy@Uparakeet_segment@@@std@@YAPEAUparakeet_segment@@PEAU1@@Z
	??$_Unfancy@Uparakeet_token_data@@@std@@YAPEAUparakeet_token_data@@PEAU1@@Z
	??$_Unfancy@Vthread@std@@@std@@YAPEAVthread@0@PEAV10@@Z
	??$_Unfancy@_W@std@@YAPEA_WPEA_W@Z
	??$_Unfancy_maybe_null@D@std@@YAPEADPEAD@Z
	??$_Unfancy_maybe_null@E@std@@YAPEAEPEAE@Z
	??$_Unfancy_maybe_null@I@std@@YAPEAIPEAI@Z
	??$_Unfancy_maybe_null@M@std@@YAPEAMPEAM@Z
	??$_Unfancy_maybe_null@PEAUggml_backend@@@std@@YAPEAPEAUggml_backend@@PEAPEAU1@@Z
	??$_Unfancy_maybe_null@PEAUggml_backend_buffer@@@std@@YAPEAPEAUggml_backend_buffer@@PEAPEAU1@@Z
	??$_Unfancy_maybe_null@PEAUggml_context@@@std@@YAPEAPEAUggml_context@@PEAPEAU1@@Z
	??$_Unfancy_maybe_null@U?$pair@PEAUggml_backend_device@@PEAUggml_backend_buffer_type@@@std@@@std@@YAPEAU?$pair@PEAUggml_backend_device@@PEAUggml_backend_buffer_type@@@0@PEAU10@@Z
	??$_Ungetc@D@std@@YA_NAEBDPEAU_iobuf@@@Z
	??$_Uninitialized_copy@PEAPEAUggml_backend@@PEAPEAU1@V?$allocator@PEAUggml_backend@@@std@@@std@@YAPEAPEAUggml_backend@@PEAPEAU1@00AEAV?$allocator@PEAUggml_backend@@@0@@Z
	??$_Uninitialized_copy@PEAU?$pair@PEAUggml_backend_device@@PEAUggml_backend_buffer_type@@@std@@PEAU12@V?$allocator@U?$pair@PEAUggml_backend_device@@PEAUggml_backend_buffer_type@@@std@@@2@@std@@YAPEAU?$pair@PEAUggml_backend_device@@PEAUggml_backend_buffer_type@@@0@PEAU10@00AEAV?$allocator@U?$pair@PEAUggml_backend_device@@PEAUggml_backend_buffer_type@@@std@@@0@@Z
	??$_Uninitialized_copy@PEBMPEBMV?$allocator@M@std@@@std@@YAPEAMPEBM0PEAMAEAV?$allocator@M@0@@Z
	??$_Uninitialized_copy_n@PEAUparakeet_token_data@@V?$allocator@Uparakeet_token_data@@@std@@@std@@YAPEAUparakeet_token_data@@PEAU1@_K0AEAV?$allocator@Uparakeet_token_data@@@0@@Z
	??$_Uninitialized_fill_n@V?$allocator@M@std@@@std@@YAPEAMPEAM_KAEBMAEAV?$allocator@M@0@@Z
	??$_Uninitialized_move@PEADV?$allocator@D@std@@@std@@YAPEADQEAD0PEADAEAV?$allocator@D@0@@Z
	??$_Uninitialized_move@PEAEV?$allocator@E@std@@@std@@YAPEAEQEAE0PEAEAEAV?$allocator@E@0@@Z
	??$_Uninitialized_move@PEAHV?$allocator@H@std@@@std@@YAPEAHQEAH0PEAHAEAV?$allocator@H@0@@Z
	??$_Uninitialized_move@PEAIV?$allocator@I@std@@@std@@YAPEAIQEAI0PEAIAEAV?$allocator@I@0@@Z
	??$_Uninitialized_move@PEAMV?$allocator@M@std@@@std@@YAPEAMQEAM0PEAMAEAV?$allocator@M@0@@Z
	??$_Uninitialized_move@PEAPEAUggml_backend@@V?$allocator@PEAUggml_backend@@@std@@@std@@YAPEAPEAUggml_backend@@QEAPEAU1@0PEAPEAU1@AEAV?$allocator@PEAUggml_backend@@@0@@Z
	??$_Uninitialized_move@PEAPEAUggml_backend_buffer@@V?$allocator@PEAUggml_backend_buffer@@@std@@@std@@YAPEAPEAUggml_backend_buffer@@QEAPEAU1@0PEAPEAU1@AEAV?$allocator@PEAUggml_backend_buffer@@@0@@Z
	??$_Uninitialized_move@PEAPEAUggml_context@@V?$allocator@PEAUggml_context@@@std@@@std@@YAPEAPEAUggml_context@@QEAPEAU1@0PEAPEAU1@AEAV?$allocator@PEAUggml_context@@@0@@Z
	??$_Uninitialized_move@PEAU?$pair@PEAUggml_backend_device@@PEAUggml_backend_buffer_type@@@std@@V?$allocator@U?$pair@PEAUggml_backend_device@@PEAUggml_backend_buffer_type@@@std@@@2@@std@@YAPEAU?$pair@PEAUggml_backend_device@@PEAUggml_backend_buffer_type@@@0@QEAU10@0PEAU10@AEAV?$allocator@U?$pair@PEAUggml_backend_device@@PEAUggml_backend_buffer_type@@@std@@@0@@Z
	??$_Uninitialized_move@PEAUparakeet_layer_encoder@@V?$allocator@Uparakeet_layer_encoder@@@std@@@std@@YAPEAUparakeet_layer_encoder@@QEAU1@0PEAU1@AEAV?$allocator@Uparakeet_layer_encoder@@@0@@Z
	??$_Uninitialized_move@PEAUparakeet_lsmt_layer@@V?$allocator@Uparakeet_lsmt_layer@@@std@@@std@@YAPEAUparakeet_lsmt_layer@@QEAU1@0PEAU1@AEAV?$allocator@Uparakeet_lsmt_layer@@@0@@Z
	??$_Uninitialized_move@PEAUparakeet_lstm_state_layer@@V?$allocator@Uparakeet_lstm_state_layer@@@std@@@std@@YAPEAUparakeet_lstm_state_layer@@QEAU1@0PEAU1@AEAV?$allocator@Uparakeet_lstm_state_layer@@@0@@Z
	??$_Uninitialized_move@PEAUparakeet_segment@@V?$allocator@Uparakeet_segment@@@std@@@std@@YAPEAUparakeet_segment@@QEAU1@0PEAU1@AEAV?$allocator@Uparakeet_segment@@@0@@Z
	??$_Uninitialized_move@PEAUparakeet_token_data@@V?$allocator@Uparakeet_token_data@@@std@@@std@@YAPEAUparakeet_token_data@@QEAU1@0PEAU1@AEAV?$allocator@Uparakeet_token_data@@@0@@Z
	??$_Uninitialized_value_construct_n@V?$allocator@D@std@@@std@@YAPEADPEAD_KAEAV?$allocator@D@0@@Z
	??$_Uninitialized_value_construct_n@V?$allocator@E@std@@@std@@YAPEAEPEAE_KAEAV?$allocator@E@0@@Z
	??$_Uninitialized_value_construct_n@V?$allocator@I@std@@@std@@YAPEAIPEAI_KAEAV?$allocator@I@0@@Z
	??$_Uninitialized_value_construct_n@V?$allocator@M@std@@@std@@YAPEAMPEAM_KAEAV?$allocator@M@0@@Z
	??$_Uninitialized_value_construct_n@V?$allocator@Uparakeet_layer_encoder@@@std@@@std@@YAPEAUparakeet_layer_encoder@@PEAU1@_KAEAV?$allocator@Uparakeet_layer_encoder@@@0@@Z
	??$_Uninitialized_value_construct_n@V?$allocator@Uparakeet_lsmt_layer@@@std@@@std@@YAPEAUparakeet_lsmt_layer@@PEAU1@_KAEAV?$allocator@Uparakeet_lsmt_layer@@@0@@Z
	??$_Uninitialized_value_construct_n@V?$allocator@Uparakeet_lstm_state_layer@@@std@@@std@@YAPEAUparakeet_lstm_state_layer@@PEAU1@_KAEAV?$allocator@Uparakeet_lstm_state_layer@@@0@@Z
	??$_Uninitialized_value_construct_n@V?$allocator@Vthread@std@@@std@@@std@@YAPEAVthread@0@PEAV10@_KAEAV?$allocator@Vthread@std@@@0@@Z
	??$_Zero_range@PEAD@std@@YAPEADQEAD0@Z
	??$_Zero_range@PEAE@std@@YAPEAEQEAE0@Z
	??$_Zero_range@PEAI@std@@YAPEAIQEAI0@Z
	??$_Zero_range@PEAM@std@@YAPEAMQEAM0@Z
	??$addressof@$$CBU?$pair@$$CBV?$basic_string@DU?$char_traits@D@std@@V?$allocator@D@2@@std@@H@std@@@std@@YAPEBU?$pair@$$CBV?$basic_string@DU?$char_traits@D@std@@V?$allocator@D@2@@std@@H@0@AEBU10@@Z
	??$addressof@$$CBUparakeet_filters@@@std@@YAPEBUparakeet_filters@@AEBU1@@Z
	??$addressof@$$CBUparakeet_mel_cache@@@std@@YAPEBUparakeet_mel_cache@@AEBU1@@Z
	??$addressof@$$CBV?$_Tree_val@U?$_Tree_simple_types@U?$pair@$$CBHV?$basic_string@DU?$char_traits@D@std@@V?$allocator@D@2@@std@@@std@@@std@@@std@@@std@@YAPEBV?$_Tree_val@U?$_Tree_simple_types@U?$pair@$$CBHV?$basic_string@DU?$char_traits@D@std@@V?$allocator@D@2@@std@@@std@@@std@@@0@AEBV10@@Z
	??$addressof@$$CBV?$_Tree_val@U?$_Tree_simple_types@U?$pair@$$CBV?$basic_string@DU?$char_traits@D@std@@V?$allocator@D@2@@std@@H@std@@@std@@@std@@@std@@YAPEBV?$_Tree_val@U?$_Tree_simple_types@U?$pair@$$CBV?$basic_string@DU?$char_traits@D@std@@V?$allocator@D@2@@std@@H@std@@@std@@@0@AEBV10@@Z
	??$addressof@$$CBV?$_Tree_val@U?$_Tree_simple_types@U?$pair@$$CBV?$basic_string@DU?$char_traits@D@std@@V?$allocator@D@2@@std@@PEAUggml_tensor@@@std@@@std@@@std@@@std@@YAPEBV?$_Tree_val@U?$_Tree_simple_types@U?$pair@$$CBV?$basic_string@DU?$char_traits@D@std@@V?$allocator@D@2@@std@@PEAUggml_tensor@@@std@@@std@@@0@AEBV10@@Z
	??$addressof@$$CBV?$_Tree_val@U?$_Tree_simple_types@U?$pair@$$CBW4parakeet_tensor@@PEBD@std@@@std@@@std@@@std@@YAPEBV?$_Tree_val@U?$_Tree_simple_types@U?$pair@$$CBW4parakeet_tensor@@PEBD@std@@@std@@@0@AEBV10@@Z
	??$addressof@$$CBV?$_Tree_val@U?$_Tree_simple_types@U?$pair@$$CBW4parakeet_tensor@@W4ggml_op@@@std@@@std@@@std@@@std@@YAPEBV?$_Tree_val@U?$_Tree_simple_types@U?$pair@$$CBW4parakeet_tensor@@W4ggml_op@@@std@@@std@@@0@AEBV10@@Z
	??$addressof@$$CBV?$_Tree_val@U?$_Tree_simple_types@U?$pair@QEAUggml_backend_buffer_type@@PEAUggml_context@@@std@@@std@@@std@@@std@@YAPEBV?$_Tree_val@U?$_Tree_simple_types@U?$pair@QEAUggml_backend_buffer_type@@PEAUggml_context@@@std@@@std@@@0@AEBV10@@Z
	??$addressof@$$CBV?$basic_string@DU?$char_traits@D@std@@V?$allocator@D@2@@std@@@std@@YAPEBV?$basic_string@DU?$char_traits@D@std@@V?$allocator@D@2@@0@AEBV10@@Z
	??$addressof@$$CBV?$codecvt@DDU_Mbstatet@@@std@@@std@@YAPEBV?$codecvt@DDU_Mbstatet@@@0@AEBV10@@Z
	??$addressof@$$CBV?$vector@MV?$allocator@M@std@@@std@@@std@@YAPEBV?$vector@MV?$allocator@M@std@@@0@AEBV10@@Z
	??$addressof@$$CBV?$vector@Uparakeet_token_data@@V?$allocator@Uparakeet_token_data@@@std@@@std@@@std@@YAPEBV?$vector@Uparakeet_token_data@@V?$allocator@Uparakeet_token_data@@@std@@@0@AEBV10@@Z
	??$addressof@H@std@@YAPEAHAEAH@Z
	??$addressof@PEAD@std@@YAPEAPEADAEAPEAD@Z
	??$addressof@PEAU?$_Tree_node@U?$pair@$$CBHV?$basic_string@DU?$char_traits@D@std@@V?$allocator@D@2@@std@@@std@@PEAX@std@@@std@@YAPEAPEAU?$_Tree_node@U?$pair@$$CBHV?$basic_string@DU?$char_traits@D@std@@V?$allocator@D@2@@std@@@std@@PEAX@0@AEAPEAU10@@Z
	??$addressof@PEAU?$_Tree_node@U?$pair@$$CBV?$basic_string@DU?$char_traits@D@std@@V?$allocator@D@2@@std@@H@std@@PEAX@std@@@std@@YAPEAPEAU?$_Tree_node@U?$pair@$$CBV?$basic_string@DU?$char_traits@D@std@@V?$allocator@D@2@@std@@H@std@@PEAX@0@AEAPEAU10@@Z
	??$addressof@PEAU?$_Tree_node@U?$pair@$$CBV?$basic_string@DU?$char_traits@D@std@@V?$allocator@D@2@@std@@PEAUggml_tensor@@@std@@PEAX@std@@@std@@YAPEAPEAU?$_Tree_node@U?$pair@$$CBV?$basic_string@DU?$char_traits@D@std@@V?$allocator@D@2@@std@@PEAUggml_tensor@@@std@@PEAX@0@AEAPEAU10@@Z
	??$addressof@PEAU?$_Tree_node@U?$pair@$$CBW4parakeet_tensor@@PEBD@std@@PEAX@std@@@std@@YAPEAPEAU?$_Tree_node@U?$pair@$$CBW4parakeet_tensor@@PEBD@std@@PEAX@0@AEAPEAU10@@Z
	??$addressof@PEAU?$_Tree_node@U?$pair@$$CBW4parakeet_tensor@@W4ggml_op@@@std@@PEAX@std@@@std@@YAPEAPEAU?$_Tree_node@U?$pair@$$CBW4parakeet_tensor@@W4ggml_op@@@std@@PEAX@0@AEAPEAU10@@Z
	??$addressof@PEAU?$_Tree_node@U?$pair@QEAUggml_backend_buffer_type@@PEAUggml_context@@@std@@PEAX@std@@@std@@YAPEAPEAU?$_Tree_node@U?$pair@QEAUggml_backend_buffer_type@@PEAUggml_context@@@std@@PEAX@0@AEAPEAU10@@Z
	??$addressof@PEAUggml_backend@@@std@@YAPEAPEAUggml_backend@@AEAPEAU1@@Z
	??$addressof@PEAUggml_backend_buffer@@@std@@YAPEAPEAUggml_backend_buffer@@AEAPEAU1@@Z
	??$addressof@PEAUggml_context@@@std@@YAPEAPEAUggml_context@@AEAPEAU1@@Z
	??$addressof@PEA_W@std@@YAPEAPEA_WAEAPEA_W@Z
	??$addressof@U?$pair@$$CBHV?$basic_string@DU?$char_traits@D@std@@V?$allocator@D@2@@std@@@std@@@std@@YAPEAU?$pair@$$CBHV?$basic_string@DU?$char_traits@D@std@@V?$allocator@D@2@@std@@@0@AEAU10@@Z
	??$addressof@U?$pair@$$CBV?$basic_string@DU?$char_traits@D@std@@V?$allocator@D@2@@std@@H@std@@@std@@YAPEAU?$pair@$$CBV?$basic_string@DU?$char_traits@D@std@@V?$allocator@D@2@@std@@H@0@AEAU10@@Z
	??$addressof@U?$pair@$$CBV?$basic_string@DU?$char_traits@D@std@@V?$allocator@D@2@@std@@PEAUggml_tensor@@@std@@@std@@YAPEAU?$pair@$$CBV?$basic_string@DU?$char_traits@D@std@@V?$allocator@D@2@@std@@PEAUggml_tensor@@@0@AEAU10@@Z
	??$addressof@U?$pair@$$CBW4parakeet_tensor@@PEBD@std@@@std@@YAPEAU?$pair@$$CBW4parakeet_tensor@@PEBD@0@AEAU10@@Z
	??$addressof@U?$pair@$$CBW4parakeet_tensor@@W4ggml_op@@@std@@@std@@YAPEAU?$pair@$$CBW4parakeet_tensor@@W4ggml_op@@@0@AEAU10@@Z
	??$addressof@U?$pair@PEAUggml_backend_device@@PEAUggml_backend_buffer_type@@@std@@@std@@YAPEAU?$pair@PEAUggml_backend_device@@PEAUggml_backend_buffer_type@@@0@AEAU10@@Z
	??$addressof@U?$pair@QEAUggml_backend_buffer_type@@PEAUggml_context@@@std@@@std@@YAPEAU?$pair@QEAUggml_backend_buffer_type@@PEAUggml_context@@@0@AEAU10@@Z
	??$addressof@Uparakeet_mel@@@std@@YAPEAUparakeet_mel@@AEAU1@@Z
	??$addressof@Uparakeet_segment@@@std@@YAPEAUparakeet_segment@@AEAU1@@Z
	??$addressof@Uparakeet_token_data@@@std@@YAPEAUparakeet_token_data@@AEAU1@@Z
	??$addressof@V?$_String_val@U?$_Simple_types@D@std@@@std@@@std@@YAPEAV?$_String_val@U?$_Simple_types@D@std@@@0@AEAV10@@Z
	??$addressof@V?$_String_val@U?$_Simple_types@_W@std@@@std@@@std@@YAPEAV?$_String_val@U?$_Simple_types@_W@std@@@0@AEAV10@@Z
	??$addressof@V?$_Tree_val@U?$_Tree_simple_types@U?$pair@$$CBHV?$basic_string@DU?$char_traits@D@std@@V?$allocator@D@2@@std@@@std@@@std@@@std@@@std@@YAPEAV?$_Tree_val@U?$_Tree_simple_types@U?$pair@$$CBHV?$basic_string@DU?$char_traits@D@std@@V?$allocator@D@2@@std@@@std@@@std@@@0@AEAV10@@Z
	??$addressof@V?$_Tree_val@U?$_Tree_simple_types@U?$pair@$$CBV?$basic_string@DU?$char_traits@D@std@@V?$allocator@D@2@@std@@H@std@@@std@@@std@@@std@@YAPEAV?$_Tree_val@U?$_Tree_simple_types@U?$pair@$$CBV?$basic_string@DU?$char_traits@D@std@@V?$allocator@D@2@@std@@H@std@@@std@@@0@AEAV10@@Z
	??$addressof@V?$_Tree_val@U?$_Tree_simple_types@U?$pair@$$CBV?$basic_string@DU?$char_traits@D@std@@V?$allocator@D@2@@std@@PEAUggml_tensor@@@std@@@std@@@std@@@std@@YAPEAV?$_Tree_val@U?$_Tree_simple_types@U?$pair@$$CBV?$basic_string@DU?$char_traits@D@std@@V?$allocator@D@2@@std@@PEAUggml_tensor@@@std@@@std@@@0@AEAV10@@Z
	??$addressof@V?$_Tree_val@U?$_Tree_simple_types@U?$pair@$$CBW4parakeet_tensor@@PEBD@std@@@std@@@std@@@std@@YAPEAV?$_Tree_val@U?$_Tree_simple_types@U?$pair@$$CBW4parakeet_tensor@@PEBD@std@@@std@@@0@AEAV10@@Z
	??$addressof@V?$_Tree_val@U?$_Tree_simple_types@U?$pair@$$CBW4parakeet_tensor@@W4ggml_op@@@std@@@std@@@std@@@std@@YAPEAV?$_Tree_val@U?$_Tree_simple_types@U?$pair@$$CBW4parakeet_tensor@@W4ggml_op@@@std@@@std@@@0@AEAV10@@Z
	??$addressof@V?$_Tree_val@U?$_Tree_simple_types@U?$pair@QEAUggml_backend_buffer_type@@PEAUggml_context@@@std@@@std@@@std@@@std@@YAPEAV?$_Tree_val@U?$_Tree_simple_types@U?$pair@QEAUggml_backend_buffer_type@@PEAUggml_context@@@std@@@std@@@0@AEAV10@@Z
	??$addressof@V?$_Vector_val@U?$_Simple_types@M@std@@@std@@@std@@YAPEAV?$_Vector_val@U?$_Simple_types@M@std@@@0@AEAV10@@Z
	??$addressof@V?$basic_filebuf@DU?$char_traits@D@std@@@std@@@std@@YAPEAV?$basic_filebuf@DU?$char_traits@D@std@@@0@AEAV10@@Z
	??$addressof@V?$basic_ostream@DU?$char_traits@D@std@@@std@@@std@@YAPEAV?$basic_ostream@DU?$char_traits@D@std@@@0@AEAV10@@Z
	??$addressof@V?$basic_string@DU?$char_traits@D@std@@V?$allocator@D@2@@std@@@std@@YAPEAV?$basic_string@DU?$char_traits@D@std@@V?$allocator@D@2@@0@AEAV10@@Z
	??$addressof@V?$vector@PEAUggml_backend@@V?$allocator@PEAUggml_backend@@@std@@@std@@@std@@YAPEAV?$vector@PEAUggml_backend@@V?$allocator@PEAUggml_backend@@@std@@@0@AEAV10@@Z
	??$construct@D$$V@?$_Default_allocator_traits@V?$allocator@D@std@@@std@@SAXAEAV?$allocator@D@1@QEAD@Z
	??$construct@DD@?$_Default_allocator_traits@V?$allocator@D@std@@@std@@SAXAEAV?$allocator@D@1@QEAD$$QEAD@Z
	??$construct@E$$V@?$_Default_allocator_traits@V?$allocator@E@std@@@std@@SAXAEAV?$allocator@E@1@QEAE@Z
	??$construct@EE@?$_Default_allocator_traits@V?$allocator@E@std@@@std@@SAXAEAV?$allocator@E@1@QEAE$$QEAE@Z
	??$construct@HAEBH@?$_Default_allocator_traits@V?$allocator@H@std@@@std@@SAXAEAV?$allocator@H@1@QEAHAEBH@Z
	??$construct@HH@?$_Default_allocator_traits@V?$allocator@H@std@@@std@@SAXAEAV?$allocator@H@1@QEAH$$QEAH@Z
	??$construct@I$$V@?$_Default_allocator_traits@V?$allocator@I@std@@@std@@SAXAEAV?$allocator@I@1@QEAI@Z
	??$construct@II@?$_Default_allocator_traits@V?$allocator@I@std@@@std@@SAXAEAV?$allocator@I@1@QEAI$$QEAI@Z
	??$construct@M$$V@?$_Default_allocator_traits@V?$allocator@M@std@@@std@@SAXAEAV?$allocator@M@1@QEAM@Z
	??$construct@MAEBM@?$_Default_allocator_traits@V?$allocator@M@std@@@std@@SAXAEAV?$allocator@M@1@QEAMAEBM@Z
	??$construct@MM@?$_Default_allocator_traits@V?$allocator@M@std@@@std@@SAXAEAV?$allocator@M@1@QEAM$$QEAM@Z
	??$construct@PEAUggml_backend@@AEAPEAU1@@?$_Default_allocator_traits@V?$allocator@PEAUggml_backend@@@std@@@std@@SAXAEAV?$allocator@PEAUggml_backend@@@1@QEAPEAUggml_backend@@AEAPEAU3@@Z
	??$construct@PEAUggml_backend@@AEBQEAU1@@?$_Default_allocator_traits@V?$allocator@PEAUggml_backend@@@std@@@std@@SAXAEAV?$allocator@PEAUggml_backend@@@1@QEAPEAUggml_backend@@AEBQEAU3@@Z
	??$construct@PEAUggml_backend@@PEAU1@@?$_Default_allocator_traits@V?$allocator@PEAUggml_backend@@@std@@@std@@SAXAEAV?$allocator@PEAUggml_backend@@@1@QEAPEAUggml_backend@@$$QEAPEAU3@@Z
	??$construct@PEAUggml_backend_buffer@@AEAPEAU1@@?$_Default_allocator_traits@V?$allocator@PEAUggml_backend_buffer@@@std@@@std@@SAXAEAV?$allocator@PEAUggml_backend_buffer@@@1@QEAPEAUggml_backend_buffer@@AEAPEAU3@@Z
	??$construct@PEAUggml_backend_buffer@@PEAU1@@?$_Default_allocator_traits@V?$allocator@PEAUggml_backend_buffer@@@std@@@std@@SAXAEAV?$allocator@PEAUggml_backend_buffer@@@1@QEAPEAUggml_backend_buffer@@$$QEAPEAU3@@Z
	??$construct@PEAUggml_context@@AEAPEAU1@@?$_Default_allocator_traits@V?$allocator@PEAUggml_context@@@std@@@std@@SAXAEAV?$allocator@PEAUggml_context@@@1@QEAPEAUggml_context@@AEAPEAU3@@Z
	??$construct@PEAUggml_context@@PEAU1@@?$_Default_allocator_traits@V?$allocator@PEAUggml_context@@@std@@@std@@SAXAEAV?$allocator@PEAUggml_context@@@1@QEAPEAUggml_context@@$$QEAPEAU3@@Z
	??$construct@U?$pair@$$CBHV?$basic_string@DU?$char_traits@D@std@@V?$allocator@D@2@@std@@@std@@AEBUpiecewise_construct_t@2@V?$tuple@AEBH@2@V?$tuple@$$V@2@@?$_Default_allocator_traits@V?$allocator@U?$_Tree_node@U?$pair@$$CBHV?$basic_string@DU?$char_traits@D@std@@V?$allocator@D@2@@std@@@std@@PEAX@std@@@std@@@std@@SAXAEAV?$allocator@U?$_Tree_node@U?$pair@$$CBHV?$basic_string@DU?$char_traits@D@std@@V?$allocator@D@2@@std@@@std@@PEAX@std@@@1@QEAU?$pair@$$CBHV?$basic_string@DU?$char_traits@D@std@@V?$allocator@D@2@@std@@@1@AEBUpiecewise_construct_t@1@$$QEAV?$tuple@AEBH@1@$$QEAV?$tuple@$$V@1@@Z
	??$construct@U?$pair@$$CBV?$basic_string@DU?$char_traits@D@std@@V?$allocator@D@2@@std@@H@std@@AEBUpiecewise_construct_t@2@V?$tuple@$$QEAV?$basic_string@DU?$char_traits@D@std@@V?$allocator@D@2@@std@@@2@V?$tuple@$$V@2@@?$_Default_allocator_traits@V?$allocator@U?$_Tree_node@U?$pair@$$CBV?$basic_string@DU?$char_traits@D@std@@V?$allocator@D@2@@std@@H@std@@PEAX@std@@@std@@@std@@SAXAEAV?$allocator@U?$_Tree_node@U?$pair@$$CBV?$basic_string@DU?$char_traits@D@std@@V?$allocator@D@2@@std@@H@std@@PEAX@std@@@1@QEAU?$pair@$$CBV?$basic_string@DU?$char_traits@D@std@@V?$allocator@D@2@@std@@H@1@AEBUpiecewise_construct_t@1@$$QEAV?$tuple@$$QEAV?$basic_string@DU?$char_traits@D@std@@V?$allocator@D@2@@std@@@1@$$QEAV?$tuple@$$V@1@@Z
	??$construct@U?$pair@$$CBV?$basic_string@DU?$char_traits@D@std@@V?$allocator@D@2@@std@@H@std@@AEBUpiecewise_construct_t@2@V?$tuple@AEBV?$basic_string@DU?$char_traits@D@std@@V?$allocator@D@2@@std@@@2@V?$tuple@$$V@2@@?$_Default_allocator_traits@V?$allocator@U?$_Tree_node@U?$pair@$$CBV?$basic_string@DU?$char_traits@D@std@@V?$allocator@D@2@@std@@H@std@@PEAX@std@@@std@@@std@@SAXAEAV?$allocator@U?$_Tree_node@U?$pair@$$CBV?$basic_string@DU?$char_traits@D@std@@V?$allocator@D@2@@std@@H@std@@PEAX@std@@@1@QEAU?$pair@$$CBV?$basic_string@DU?$char_traits@D@std@@V?$allocator@D@2@@std@@H@1@AEBUpiecewise_construct_t@1@$$QEAV?$tuple@AEBV?$basic_string@DU?$char_traits@D@std@@V?$allocator@D@2@@std@@@1@$$QEAV?$tuple@$$V@1@@Z
	??$construct@U?$pair@$$CBV?$basic_string@DU?$char_traits@D@std@@V?$allocator@D@2@@std@@PEAUggml_tensor@@@std@@AEBUpiecewise_construct_t@2@V?$tuple@$$QEAV?$basic_string@DU?$char_traits@D@std@@V?$allocator@D@2@@std@@@2@V?$tuple@$$V@2@@?$_Default_allocator_traits@V?$allocator@U?$_Tree_node@U?$pair@$$CBV?$basic_string@DU?$char_traits@D@std@@V?$allocator@D@2@@std@@PEAUggml_tensor@@@std@@PEAX@std@@@std@@@std@@SAXAEAV?$allocator@U?$_Tree_node@U?$pair@$$CBV?$basic_string@DU?$char_traits@D@std@@V?$allocator@D@2@@std@@PEAUggml_tensor@@@std@@PEAX@std@@@1@QEAU?$pair@$$CBV?$basic_string@DU?$char_traits@D@std@@V?$allocator@D@2@@std@@PEAUggml_tensor@@@1@AEBUpiecewise_construct_t@1@$$QEAV?$tuple@$$QEAV?$basic_string@DU?$char_traits@D@std@@V?$allocator@D@2@@std@@@1@$$QEAV?$tuple@$$V@1@@Z
	??$construct@U?$pair@$$CBV?$basic_string@DU?$char_traits@D@std@@V?$allocator@D@2@@std@@PEAUggml_tensor@@@std@@AEBUpiecewise_construct_t@2@V?$tuple@AEBV?$basic_string@DU?$char_traits@D@std@@V?$allocator@D@2@@std@@@2@V?$tuple@$$V@2@@?$_Default_allocator_traits@V?$allocator@U?$_Tree_node@U?$pair@$$CBV?$basic_string@DU?$char_traits@D@std@@V?$allocator@D@2@@std@@PEAUggml_tensor@@@std@@PEAX@std@@@std@@@std@@SAXAEAV?$allocator@U?$_Tree_node@U?$pair@$$CBV?$basic_string@DU?$char_traits@D@std@@V?$allocator@D@2@@std@@PEAUggml_tensor@@@std@@PEAX@std@@@1@QEAU?$pair@$$CBV?$basic_string@DU?$char_traits@D@std@@V?$allocator@D@2@@std@@PEAUggml_tensor@@@1@AEBUpiecewise_construct_t@1@$$QEAV?$tuple@AEBV?$basic_string@DU?$char_traits@D@std@@V?$allocator@D@2@@std@@@1@$$QEAV?$tuple@$$V@1@@Z
	??$construct@U?$pair@$$CBW4parakeet_tensor@@PEBD@std@@AEBU12@@?$_Default_allocator_traits@V?$allocator@U?$_Tree_node@U?$pair@$$CBW4parakeet_tensor@@PEBD@std@@PEAX@std@@@std@@@std@@SAXAEAV?$allocator@U?$_Tree_node@U?$pair@$$CBW4parakeet_tensor@@PEBD@std@@PEAX@std@@@1@QEAU?$pair@$$CBW4parakeet_tensor@@PEBD@1@AEBU31@@Z
	??$construct@U?$pair@$$CBW4parakeet_tensor@@W4ggml_op@@@std@@AEBU12@@?$_Default_allocator_traits@V?$allocator@U?$_Tree_node@U?$pair@$$CBW4parakeet_tensor@@W4ggml_op@@@std@@PEAX@std@@@std@@@std@@SAXAEAV?$allocator@U?$_Tree_node@U?$pair@$$CBW4parakeet_tensor@@W4ggml_op@@@std@@PEAX@std@@@1@QEAU?$pair@$$CBW4parakeet_tensor@@W4ggml_op@@@1@AEBU31@@Z
	??$construct@U?$pair@PEAUggml_backend_device@@PEAUggml_backend_buffer_type@@@std@@AEAPEAUggml_backend_device@@AEAPEAUggml_backend_buffer_type@@@?$_Default_allocator_traits@V?$allocator@U?$pair@PEAUggml_backend_device@@PEAUggml_backend_buffer_type@@@std@@@std@@@std@@SAXAEAV?$allocator@U?$pair@PEAUggml_backend_device@@PEAUggml_backend_buffer_type@@@std@@@1@QEAU?$pair@PEAUggml_backend_device@@PEAUggml_backend_buffer_type@@@1@AEAPEAUggml_backend_device@@AEAPEAUggml_backend_buffer_type@@@Z
	??$construct@U?$pair@PEAUggml_backend_device@@PEAUggml_backend_buffer_type@@@std@@AEAPEAUggml_backend_device@@PEAUggml_backend_buffer_type@@@?$_Default_allocator_traits@V?$allocator@U?$pair@PEAUggml_backend_device@@PEAUggml_backend_buffer_type@@@std@@@std@@@std@@SAXAEAV?$allocator@U?$pair@PEAUggml_backend_device@@PEAUggml_backend_buffer_type@@@std@@@1@QEAU?$pair@PEAUggml_backend_device@@PEAUggml_backend_buffer_type@@@1@AEAPEAUggml_backend_device@@$$QEAPEAUggml_backend_buffer_type@@@Z
	??$construct@U?$pair@PEAUggml_backend_device@@PEAUggml_backend_buffer_type@@@std@@AEAU12@@?$_Default_allocator_traits@V?$allocator@U?$pair@PEAUggml_backend_device@@PEAUggml_backend_buffer_type@@@std@@@std@@@std@@SAXAEAV?$allocator@U?$pair@PEAUggml_backend_device@@PEAUggml_backend_buffer_type@@@std@@@1@QEAU?$pair@PEAUggml_backend_device@@PEAUggml_backend_buffer_type@@@1@AEAU31@@Z
	??$construct@U?$pair@PEAUggml_backend_device@@PEAUggml_backend_buffer_type@@@std@@U12@@?$_Default_allocator_traits@V?$allocator@U?$pair@PEAUggml_backend_device@@PEAUggml_backend_buffer_type@@@std@@@std@@@std@@SAXAEAV?$allocator@U?$pair@PEAUggml_backend_device@@PEAUggml_backend_buffer_type@@@std@@@1@QEAU?$pair@PEAUggml_backend_device@@PEAUggml_backend_buffer_type@@@1@$$QEAU31@@Z
	??$construct@U?$pair@QEAUggml_backend_buffer_type@@PEAUggml_context@@@std@@AEBUpiecewise_construct_t@2@V?$tuple@AEBQEAUggml_backend_buffer_type@@@2@V?$tuple@$$V@2@@?$_Default_allocator_traits@V?$allocator@U?$_Tree_node@U?$pair@QEAUggml_backend_buffer_type@@PEAUggml_context@@@std@@PEAX@std@@@std@@@std@@SAXAEAV?$allocator@U?$_Tree_node@U?$pair@QEAUggml_backend_buffer_type@@PEAUggml_context@@@std@@PEAX@std@@@1@QEAU?$pair@QEAUggml_backend_buffer_type@@PEAUggml_context@@@1@AEBUpiecewise_construct_t@1@$$QEAV?$tuple@AEBQEAUggml_backend_buffer_type@@@1@$$QEAV?$tuple@$$V@1@@Z
	??$construct@Uparakeet_layer_encoder@@$$V@?$_Default_allocator_traits@V?$allocator@Uparakeet_layer_encoder@@@std@@@std@@SAXAEAV?$allocator@Uparakeet_layer_encoder@@@1@QEAUparakeet_layer_encoder@@@Z
	??$construct@Uparakeet_layer_encoder@@U1@@?$_Default_allocator_traits@V?$allocator@Uparakeet_layer_encoder@@@std@@@std@@SAXAEAV?$allocator@Uparakeet_layer_encoder@@@1@QEAUparakeet_layer_encoder@@$$QEAU3@@Z
	??$construct@Uparakeet_lsmt_layer@@$$V@?$_Default_allocator_traits@V?$allocator@Uparakeet_lsmt_layer@@@std@@@std@@SAXAEAV?$allocator@Uparakeet_lsmt_layer@@@1@QEAUparakeet_lsmt_layer@@@Z
	??$construct@Uparakeet_lsmt_layer@@U1@@?$_Default_allocator_traits@V?$allocator@Uparakeet_lsmt_layer@@@std@@@std@@SAXAEAV?$allocator@Uparakeet_lsmt_layer@@@1@QEAUparakeet_lsmt_layer@@$$QEAU3@@Z
	??$construct@Uparakeet_lstm_state_layer@@$$V@?$_Default_allocator_traits@V?$allocator@Uparakeet_lstm_state_layer@@@std@@@std@@SAXAEAV?$allocator@Uparakeet_lstm_state_layer@@@1@QEAUparakeet_lstm_state_layer@@@Z
	??$construct@Uparakeet_lstm_state_layer@@U1@@?$_Default_allocator_traits@V?$allocator@Uparakeet_lstm_state_layer@@@std@@@std@@SAXAEAV?$allocator@Uparakeet_lstm_state_layer@@@1@QEAUparakeet_lstm_state_layer@@$$QEAU3@@Z
	??$construct@Uparakeet_segment@@U1@@?$_Default_allocator_traits@V?$allocator@Uparakeet_segment@@@std@@@std@@SAXAEAV?$allocator@Uparakeet_segment@@@1@QEAUparakeet_segment@@$$QEAU3@@Z
	??$construct@Uparakeet_token_data@@AEAU1@@?$_Default_allocator_traits@V?$allocator@Uparakeet_token_data@@@std@@@std@@SAXAEAV?$allocator@Uparakeet_token_data@@@1@QEAUparakeet_token_data@@AEAU3@@Z
	??$construct@Uparakeet_token_data@@AEBU1@@?$_Default_allocator_traits@V?$allocator@Uparakeet_token_data@@@std@@@std@@SAXAEAV?$allocator@Uparakeet_token_data@@@1@QEAUparakeet_token_data@@AEBU3@@Z
	??$construct@Uparakeet_token_data@@U1@@?$_Default_allocator_traits@V?$allocator@Uparakeet_token_data@@@std@@@std@@SAXAEAV?$allocator@Uparakeet_token_data@@@1@QEAUparakeet_token_data@@$$QEAU3@@Z
	??$construct@Vthread@std@@$$V@?$_Default_allocator_traits@V?$allocator@Vthread@std@@@std@@@std@@SAXAEAV?$allocator@Vthread@std@@@1@QEAVthread@1@@Z
	??$copy@V?$_Vector_iterator@V?$_Vector_val@U?$_Simple_types@M@std@@@std@@@std@@V12@@std@@YA?AV?$_Vector_iterator@V?$_Vector_val@U?$_Simple_types@M@std@@@std@@@0@V10@00@Z
	??$cref@Uparakeet_filters@@@std@@YA?AV?$reference_wrapper@$$CBUparakeet_filters@@@0@AEBUparakeet_filters@@@Z
	??$cref@Uparakeet_mel_cache@@@std@@YA?AV?$reference_wrapper@$$CBUparakeet_mel_cache@@@0@AEBUparakeet_mel_cache@@@Z
	??$cref@V?$vector@MV?$allocator@M@std@@@std@@@std@@YA?AV?$reference_wrapper@$$CBV?$vector@MV?$allocator@M@std@@@std@@@0@AEBV?$vector@MV?$allocator@M@std@@@0@@Z
	??$destroy@U?$pair@$$CBHV?$basic_string@DU?$char_traits@D@std@@V?$allocator@D@2@@std@@@std@@@?$_Default_allocator_traits@V?$allocator@U?$_Tree_node@U?$pair@$$CBHV?$basic_string@DU?$char_traits@D@std@@V?$allocator@D@2@@std@@@std@@PEAX@std@@@std@@@std@@SAXAEAV?$allocator@U?$_Tree_node@U?$pair@$$CBHV?$basic_string@DU?$char_traits@D@std@@V?$allocator@D@2@@std@@@std@@PEAX@std@@@1@QEAU?$pair@$$CBHV?$basic_string@DU?$char_traits@D@std@@V?$allocator@D@2@@std@@@1@@Z
	??$destroy@U?$pair@$$CBV?$basic_string@DU?$char_traits@D@std@@V?$allocator@D@2@@std@@H@std@@@?$_Default_allocator_traits@V?$allocator@U?$_Tree_node@U?$pair@$$CBV?$basic_string@DU?$char_traits@D@std@@V?$allocator@D@2@@std@@H@std@@PEAX@std@@@std@@@std@@SAXAEAV?$allocator@U?$_Tree_node@U?$pair@$$CBV?$basic_string@DU?$char_traits@D@std@@V?$allocator@D@2@@std@@H@std@@PEAX@std@@@1@QEAU?$pair@$$CBV?$basic_string@DU?$char_traits@D@std@@V?$allocator@D@2@@std@@H@1@@Z
	??$destroy@U?$pair@$$CBV?$basic_string@DU?$char_traits@D@std@@V?$allocator@D@2@@std@@PEAUggml_tensor@@@std@@@?$_Default_allocator_traits@V?$allocator@U?$_Tree_node@U?$pair@$$CBV?$basic_string@DU?$char_traits@D@std@@V?$allocator@D@2@@std@@PEAUggml_tensor@@@std@@PEAX@std@@@std@@@std@@SAXAEAV?$allocator@U?$_Tree_node@U?$pair@$$CBV?$basic_string@DU?$char_traits@D@std@@V?$allocator@D@2@@std@@PEAUggml_tensor@@@std@@PEAX@std@@@1@QEAU?$pair@$$CBV?$basic_string@DU?$char_traits@D@std@@V?$allocator@D@2@@std@@PEAUggml_tensor@@@1@@Z
	??$destroy@U?$pair@$$CBW4parakeet_tensor@@PEBD@std@@@?$_Default_allocator_traits@V?$allocator@U?$_Tree_node@U?$pair@$$CBW4parakeet_tensor@@PEBD@std@@PEAX@std@@@std@@@std@@SAXAEAV?$allocator@U?$_Tree_node@U?$pair@$$CBW4parakeet_tensor@@PEBD@std@@PEAX@std@@@1@QEAU?$pair@$$CBW4parakeet_tensor@@PEBD@1@@Z
	??$destroy@U?$pair@$$CBW4parakeet_tensor@@W4ggml_op@@@std@@@?$_Default_allocator_traits@V?$allocator@U?$_Tree_node@U?$pair@$$CBW4parakeet_tensor@@W4ggml_op@@@std@@PEAX@std@@@std@@@std@@SAXAEAV?$allocator@U?$_Tree_node@U?$pair@$$CBW4parakeet_tensor@@W4ggml_op@@@std@@PEAX@std@@@1@QEAU?$pair@$$CBW4parakeet_tensor@@W4ggml_op@@@1@@Z
	??$destroy@U?$pair@QEAUggml_backend_buffer_type@@PEAUggml_context@@@std@@@?$_Default_allocator_traits@V?$allocator@U?$_Tree_node@U?$pair@QEAUggml_backend_buffer_type@@PEAUggml_context@@@std@@PEAX@std@@@std@@@std@@SAXAEAV?$allocator@U?$_Tree_node@U?$pair@QEAUggml_backend_buffer_type@@PEAUggml_context@@@std@@PEAX@std@@@1@QEAU?$pair@QEAUggml_backend_buffer_type@@PEAUggml_context@@@1@@Z
	??$destroy@Uparakeet_segment@@@?$_Default_allocator_traits@V?$allocator@Uparakeet_segment@@@std@@@std@@SAXAEAV?$allocator@Uparakeet_segment@@@1@QEAUparakeet_segment@@@Z
	??$destroy@Vthread@std@@@?$_Default_allocator_traits@V?$allocator@Vthread@std@@@std@@@std@@SAXAEAV?$allocator@Vthread@std@@@1@QEAVthread@1@@Z
	??$distance@PEBM@std@@YA_JPEBM0@Z
	??$emplace_back@AEAPEAUggml_backend_buffer@@@?$vector@PEAUggml_backend_buffer@@V?$allocator@PEAUggml_backend_buffer@@@std@@@std@@QEAAXAEAPEAUggml_backend_buffer@@@Z
	??$emplace_back@AEAPEAUggml_backend_device@@AEAPEAUggml_backend_buffer_type@@@?$vector@U?$pair@PEAUggml_backend_device@@PEAUggml_backend_buffer_type@@@std@@V?$allocator@U?$pair@PEAUggml_backend_device@@PEAUggml_backend_buffer_type@@@std@@@2@@std@@QEAAXAEAPEAUggml_backend_device@@AEAPEAUggml_backend_buffer_type@@@Z
	??$emplace_back@AEAPEAUggml_backend_device@@PEAUggml_backend_buffer_type@@@?$vector@U?$pair@PEAUggml_backend_device@@PEAUggml_backend_buffer_type@@@std@@V?$allocator@U?$pair@PEAUggml_backend_device@@PEAUggml_backend_buffer_type@@@std@@@2@@std@@QEAAXAEAPEAUggml_backend_device@@$$QEAPEAUggml_backend_buffer_type@@@Z
	??$emplace_back@AEAPEAUggml_context@@@?$vector@PEAUggml_context@@V?$allocator@PEAUggml_context@@@std@@@std@@QEAAXAEAPEAUggml_context@@@Z
	??$exchange@PEAH$$T@std@@YAPEAHAEAPEAH$$QEA$$T@Z
	??$exchange@PEAPEAUggml_backend@@$$T@std@@YAPEAPEAUggml_backend@@AEAPEAPEAU1@$$QEA$$T@Z
	??$exchange@PEAU?$_Tree_node@U?$pair@$$CBHV?$basic_string@DU?$char_traits@D@std@@V?$allocator@D@2@@std@@@std@@PEAX@std@@$$T@std@@YAPEAU?$_Tree_node@U?$pair@$$CBHV?$basic_string@DU?$char_traits@D@std@@V?$allocator@D@2@@std@@@std@@PEAX@0@AEAPEAU10@$$QEA$$T@Z
	??$exchange@PEAU?$_Tree_node@U?$pair@$$CBHV?$basic_string@DU?$char_traits@D@std@@V?$allocator@D@2@@std@@@std@@PEAX@std@@AEAPEAU12@@std@@YAPEAU?$_Tree_node@U?$pair@$$CBHV?$basic_string@DU?$char_traits@D@std@@V?$allocator@D@2@@std@@@std@@PEAX@0@AEAPEAU10@0@Z
	??$exchange@PEAU?$_Tree_node@U?$pair@$$CBV?$basic_string@DU?$char_traits@D@std@@V?$allocator@D@2@@std@@H@std@@PEAX@std@@$$T@std@@YAPEAU?$_Tree_node@U?$pair@$$CBV?$basic_string@DU?$char_traits@D@std@@V?$allocator@D@2@@std@@H@std@@PEAX@0@AEAPEAU10@$$QEA$$T@Z
	??$exchange@PEAU?$_Tree_node@U?$pair@$$CBV?$basic_string@DU?$char_traits@D@std@@V?$allocator@D@2@@std@@H@std@@PEAX@std@@AEAPEAU12@@std@@YAPEAU?$_Tree_node@U?$pair@$$CBV?$basic_string@DU?$char_traits@D@std@@V?$allocator@D@2@@std@@H@std@@PEAX@0@AEAPEAU10@0@Z
	??$exchange@PEAU?$_Tree_node@U?$pair@$$CBV?$basic_string@DU?$char_traits@D@std@@V?$allocator@D@2@@std@@PEAUggml_tensor@@@std@@PEAX@std@@$$T@std@@YAPEAU?$_Tree_node@U?$pair@$$CBV?$basic_string@DU?$char_traits@D@std@@V?$allocator@D@2@@std@@PEAUggml_tensor@@@std@@PEAX@0@AEAPEAU10@$$QEA$$T@Z
	??$exchange@PEAU?$_Tree_node@U?$pair@$$CBV?$basic_string@DU?$char_traits@D@std@@V?$allocator@D@2@@std@@PEAUggml_tensor@@@std@@PEAX@std@@AEAPEAU12@@std@@YAPEAU?$_Tree_node@U?$pair@$$CBV?$basic_string@DU?$char_traits@D@std@@V?$allocator@D@2@@std@@PEAUggml_tensor@@@std@@PEAX@0@AEAPEAU10@0@Z
	??$exchange@PEAU?$_Tree_node@U?$pair@$$CBW4parakeet_tensor@@PEBD@std@@PEAX@std@@$$T@std@@YAPEAU?$_Tree_node@U?$pair@$$CBW4parakeet_tensor@@PEBD@std@@PEAX@0@AEAPEAU10@$$QEA$$T@Z
	??$exchange@PEAU?$_Tree_node@U?$pair@$$CBW4parakeet_tensor@@PEBD@std@@PEAX@std@@AEAPEAU12@@std@@YAPEAU?$_Tree_node@U?$pair@$$CBW4parakeet_tensor@@PEBD@std@@PEAX@0@AEAPEAU10@0@Z
	??$exchange@PEAU?$_Tree_node@U?$pair@$$CBW4parakeet_tensor@@W4ggml_op@@@std@@PEAX@std@@$$T@std@@YAPEAU?$_Tree_node@U?$pair@$$CBW4parakeet_tensor@@W4ggml_op@@@std@@PEAX@0@AEAPEAU10@$$QEA$$T@Z
	??$exchange@PEAU?$_Tree_node@U?$pair@$$CBW4parakeet_tensor@@W4ggml_op@@@std@@PEAX@std@@AEAPEAU12@@std@@YAPEAU?$_Tree_node@U?$pair@$$CBW4parakeet_tensor@@W4ggml_op@@@std@@PEAX@0@AEAPEAU10@0@Z
	??$exchange@PEAU?$_Tree_node@U?$pair@QEAUggml_backend_buffer_type@@PEAUggml_context@@@std@@PEAX@std@@$$T@std@@YAPEAU?$_Tree_node@U?$pair@QEAUggml_backend_buffer_type@@PEAUggml_context@@@std@@PEAX@0@AEAPEAU10@$$QEA$$T@Z
	??$exchange@PEAU?$_Tree_node@U?$pair@QEAUggml_backend_buffer_type@@PEAUggml_context@@@std@@PEAX@std@@AEAPEAU12@@std@@YAPEAU?$_Tree_node@U?$pair@QEAUggml_backend_buffer_type@@PEAUggml_context@@@std@@PEAX@0@AEAPEAU10@0@Z
	??$exchange@PEAU?$pair@PEAUggml_backend_device@@PEAUggml_backend_buffer_type@@@std@@$$T@std@@YAPEAU?$pair@PEAUggml_backend_device@@PEAUggml_backend_buffer_type@@@0@AEAPEAU10@$$QEA$$T@Z
	??$exchange@PEAUparakeet_token_data@@$$T@std@@YAPEAUparakeet_token_data@@AEAPEAU1@$$QEA$$T@Z
	??$exchange@PEAV?$tuple@P6AXUmel_worker_params@@PEBMAEBV?$vector@MV?$allocator@M@std@@@std@@AEBUparakeet_filters@@AEAUparakeet_mel@@AEBUparakeet_mel_cache@@@ZU1@PEBMV?$reference_wrapper@$$CBV?$vector@MV?$allocator@M@std@@@std@@@3@V?$reference_wrapper@$$CBUparakeet_filters@@@3@V?$reference_wrapper@Uparakeet_mel@@@3@V?$reference_wrapper@$$CBUparakeet_mel_cache@@@3@@std@@$$T@std@@YAPEAV?$tuple@P6AXUmel_worker_params@@PEBMAEBV?$vector@MV?$allocator@M@std@@@std@@AEBUparakeet_filters@@AEAUparakeet_mel@@AEBUparakeet_mel_cache@@@ZU1@PEBMV?$reference_wrapper@$$CBV?$vector@MV?$allocator@M@std@@@std@@@3@V?$reference_wrapper@$$CBUparakeet_filters@@@3@V?$reference_wrapper@Uparakeet_mel@@@3@V?$reference_wrapper@$$CBUparakeet_mel_cache@@@3@@0@AEAPEAV10@$$QEA$$T@Z
	??$exchange@PEAV_Facet_base@std@@$$T@std@@YAPEAV_Facet_base@0@AEAPEAV10@$$QEA$$T@Z
	??$exchange@U_Thrd_t@@U1@@std@@YA?AU_Thrd_t@@AEAU1@$$QEAU1@@Z
	??$fill@V?$_Vector_iterator@V?$_Vector_val@U?$_Simple_types@M@std@@@std@@@std@@M@std@@YAXV?$_Vector_iterator@V?$_Vector_val@U?$_Simple_types@M@std@@@std@@@0@0AEBM@Z
	??$forward@A6AXUmel_worker_params@@PEBMAEBV?$vector@MV?$allocator@M@std@@@std@@AEBUparakeet_filters@@AEAUparakeet_mel@@AEBUparakeet_mel_cache@@@Z@std@@YAA6AXUmel_worker_params@@PEBMAEBV?$vector@MV?$allocator@M@std@@@0@AEBUparakeet_filters@@AEAUparakeet_mel@@AEBUparakeet_mel_cache@@@ZA6AX012345@Z@Z
	??$forward@AEAPEAD@std@@YAAEAPEADAEAPEAD@Z
	??$forward@AEAPEAU?$_Tree_node@U?$pair@$$CBHV?$basic_string@DU?$char_traits@D@std@@V?$allocator@D@2@@std@@@std@@PEAX@std@@@std@@YAAEAPEAU?$_Tree_node@U?$pair@$$CBHV?$basic_string@DU?$char_traits@D@std@@V?$allocator@D@2@@std@@@std@@PEAX@0@AEAPEAU10@@Z
	??$forward@AEAPEAU?$_Tree_node@U?$pair@$$CBV?$basic_string@DU?$char_traits@D@std@@V?$allocator@D@2@@std@@H@std@@PEAX@std@@@std@@YAAEAPEAU?$_Tree_node@U?$pair@$$CBV?$basic_string@DU?$char_traits@D@std@@V?$allocator@D@2@@std@@H@std@@PEAX@0@AEAPEAU10@@Z
	??$forward@AEAPEAU?$_Tree_node@U?$pair@$$CBV?$basic_string@DU?$char_traits@D@std@@V?$allocator@D@2@@std@@PEAUggml_tensor@@@std@@PEAX@std@@@std@@YAAEAPEAU?$_Tree_node@U?$pair@$$CBV?$basic_string@DU?$char_traits@D@std@@V?$allocator@D@2@@std@@PEAUggml_tensor@@@std@@PEAX@0@AEAPEAU10@@Z
	??$forward@AEAPEAU?$_Tree_node@U?$pair@$$CBW4parakeet_tensor@@PEBD@std@@PEAX@std@@@std@@YAAEAPEAU?$_Tree_node@U?$pair@$$CBW4parakeet_tensor@@PEBD@std@@PEAX@0@AEAPEAU10@@Z
	??$forward@AEAPEAU?$_Tree_node@U?$pair@$$CBW4parakeet_tensor@@W4ggml_op@@@std@@PEAX@std@@@std@@YAAEAPEAU?$_Tree_node@U?$pair@$$CBW4parakeet_tensor@@W4ggml_op@@@std@@PEAX@0@AEAPEAU10@@Z
	??$forward@AEAPEAU?$_Tree_node@U?$pair@QEAUggml_backend_buffer_type@@PEAUggml_context@@@std@@PEAX@std@@@std@@YAAEAPEAU?$_Tree_node@U?$pair@QEAUggml_backend_buffer_type@@PEAUggml_context@@@std@@PEAX@0@AEAPEAU10@@Z
	??$forward@AEAPEAUggml_backend@@@std@@YAAEAPEAUggml_backend@@AEAPEAU1@@Z
	??$forward@AEAPEAUggml_backend_buffer@@@std@@YAAEAPEAUggml_backend_buffer@@AEAPEAU1@@Z
	??$forward@AEAPEAUggml_backend_buffer_type@@@std@@YAAEAPEAUggml_backend_buffer_type@@AEAPEAU1@@Z
	??$forward@AEAPEAUggml_backend_device@@@std@@YAAEAPEAUggml_backend_device@@AEAPEAU1@@Z
	??$forward@AEAPEAUggml_context@@@std@@YAAEAPEAUggml_context@@AEAPEAU1@@Z
	??$forward@AEAPEAV?$tuple@P6AXUmel_worker_params@@PEBMAEBV?$vector@MV?$allocator@M@std@@@std@@AEBUparakeet_filters@@AEAUparakeet_mel@@AEBUparakeet_mel_cache@@@ZU1@PEBMV?$reference_wrapper@$$CBV?$vector@MV?$allocator@M@std@@@std@@@3@V?$reference_wrapper@$$CBUparakeet_filters@@@3@V?$reference_wrapper@Uparakeet_mel@@@3@V?$reference_wrapper@$$CBUparakeet_mel_cache@@@3@@std@@@std@@YAAEAPEAV?$tuple@P6AXUmel_worker_params@@PEBMAEBV?$vector@MV?$allocator@M@std@@@std@@AEBUparakeet_filters@@AEAUparakeet_mel@@AEBUparakeet_mel_cache@@@ZU1@PEBMV?$reference_wrapper@$$CBV?$vector@MV?$allocator@M@std@@@std@@@3@V?$reference_wrapper@$$CBUparakeet_filters@@@3@V?$reference_wrapper@Uparakeet_mel@@@3@V?$reference_wrapper@$$CBUparakeet_mel_cache@@@3@@0@AEAPEAV10@@Z
	??$forward@AEAPEAV_Facet_base@std@@@std@@YAAEAPEAV_Facet_base@0@AEAPEAV10@@Z
	??$forward@AEAPEA_W@std@@YAAEAPEA_WAEAPEA_W@Z
	??$forward@AEAPEBM@std@@YAAEAPEBMAEAPEBM@Z
	??$forward@AEAU?$pair@PEAUggml_backend_device@@PEAUggml_backend_buffer_type@@@std@@@std@@YAAEAU?$pair@PEAUggml_backend_device@@PEAUggml_backend_buffer_type@@@0@AEAU10@@Z
	??$forward@AEAUmel_worker_params@@@std@@YAAEAUmel_worker_params@@AEAU1@@Z
	??$forward@AEAUparakeet_token_data@@@std@@YAAEAUparakeet_token_data@@AEAU1@@Z
	??$forward@AEAY0BA@$$CBD@std@@YAAEAY0BA@$$CBDAEAY0BA@$$CBD@Z
	??$forward@AEAY0BB@$$CBD@std@@YAAEAY0BB@$$CBDAEAY0BB@$$CBD@Z
	??$forward@AEAY0BC@$$CBD@std@@YAAEAY0BC@$$CBDAEAY0BC@$$CBD@Z
	??$forward@AEAY0BH@$$CBD@std@@YAAEAY0BH@$$CBDAEAY0BH@$$CBD@Z
	??$forward@AEAY0BJ@$$CBD@std@@YAAEAY0BJ@$$CBDAEAY0BJ@$$CBD@Z
	??$forward@AEAY0BM@$$CBD@std@@YAAEAY0BM@$$CBDAEAY0BM@$$CBD@Z
	??$forward@AEAY0BO@$$CBD@std@@YAAEAY0BO@$$CBDAEAY0BO@$$CBD@Z
	??$forward@AEAY0BP@$$CBD@std@@YAAEAY0BP@$$CBDAEAY0BP@$$CBD@Z
	??$forward@AEAY0CA@$$CBD@std@@YAAEAY0CA@$$CBDAEAY0CA@$$CBD@Z
	??$forward@AEAY0CB@$$CBD@std@@YAAEAY0CB@$$CBDAEAY0CB@$$CBD@Z
	??$forward@AEAY0CC@$$CBD@std@@YAAEAY0CC@$$CBDAEAY0CC@$$CBD@Z
	??$forward@AEAY0CD@$$CBD@std@@YAAEAY0CD@$$CBDAEAY0CD@$$CBD@Z
	??$forward@AEAY0CF@$$CBD@std@@YAAEAY0CF@$$CBDAEAY0CF@$$CBD@Z
	??$forward@AEAY0CH@$$CBD@std@@YAAEAY0CH@$$CBDAEAY0CH@$$CBD@Z
	??$forward@AEAY0CJ@$$CBD@std@@YAAEAY0CJ@$$CBDAEAY0CJ@$$CBD@Z
	??$forward@AEAY0CK@$$CBD@std@@YAAEAY0CK@$$CBDAEAY0CK@$$CBD@Z
	??$forward@AEAY0CL@$$CBD@std@@YAAEAY0CL@$$CBDAEAY0CL@$$CBD@Z
	??$forward@AEAY0CM@$$CBD@std@@YAAEAY0CM@$$CBDAEAY0CM@$$CBD@Z
	??$forward@AEAY0CN@$$CBD@std@@YAAEAY0CN@$$CBDAEAY0CN@$$CBD@Z
	??$forward@AEAY0CO@$$CBD@std@@YAAEAY0CO@$$CBDAEAY0CO@$$CBD@Z
	??$forward@AEAY0CP@$$CBD@std@@YAAEAY0CP@$$CBDAEAY0CP@$$CBD@Z
	??$forward@AEAY0DG@$$CBD@std@@YAAEAY0DG@$$CBDAEAY0DG@$$CBD@Z
	??$forward@AEAY0P@$$CBD@std@@YAAEAY0P@$$CBDAEAY0P@$$CBD@Z
	??$forward@AEBH@std@@YAAEBHAEBH@Z
	??$forward@AEBM@std@@YAAEBMAEBM@Z
	??$forward@AEBQEAD@std@@YAAEBQEADAEBQEAD@Z
	??$forward@AEBQEAPEAUggml_backend@@@std@@YAAEBQEAPEAUggml_backend@@AEBQEAPEAU1@@Z
	??$forward@AEBQEAU?$_Tree_node@U?$pair@$$CBHV?$basic_string@DU?$char_traits@D@std@@V?$allocator@D@2@@std@@@std@@PEAX@std@@@std@@YAAEBQEAU?$_Tree_node@U?$pair@$$CBHV?$basic_string@DU?$char_traits@D@std@@V?$allocator@D@2@@std@@@std@@PEAX@0@AEBQEAU10@@Z
	??$forward@AEBQEAU?$_Tree_node@U?$pair@$$CBV?$basic_string@DU?$char_traits@D@std@@V?$allocator@D@2@@std@@H@std@@PEAX@std@@@std@@YAAEBQEAU?$_Tree_node@U?$pair@$$CBV?$basic_string@DU?$char_traits@D@std@@V?$allocator@D@2@@std@@H@std@@PEAX@0@AEBQEAU10@@Z
	??$forward@AEBQEAU?$_Tree_node@U?$pair@$$CBV?$basic_string@DU?$char_traits@D@std@@V?$allocator@D@2@@std@@PEAUggml_tensor@@@std@@PEAX@std@@@std@@YAAEBQEAU?$_Tree_node@U?$pair@$$CBV?$basic_string@DU?$char_traits@D@std@@V?$allocator@D@2@@std@@PEAUggml_tensor@@@std@@PEAX@0@AEBQEAU10@@Z
	??$forward@AEBQEAU?$_Tree_node@U?$pair@$$CBW4parakeet_tensor@@PEBD@std@@PEAX@std@@@std@@YAAEBQEAU?$_Tree_node@U?$pair@$$CBW4parakeet_tensor@@PEBD@std@@PEAX@0@AEBQEAU10@@Z
	??$forward@AEBQEAU?$_Tree_node@U?$pair@$$CBW4parakeet_tensor@@W4ggml_op@@@std@@PEAX@std@@@std@@YAAEBQEAU?$_Tree_node@U?$pair@$$CBW4parakeet_tensor@@W4ggml_op@@@std@@PEAX@0@AEBQEAU10@@Z
	??$forward@AEBQEAU?$_Tree_node@U?$pair@QEAUggml_backend_buffer_type@@PEAUggml_context@@@std@@PEAX@std@@@std@@YAAEBQEAU?$_Tree_node@U?$pair@QEAUggml_backend_buffer_type@@PEAUggml_context@@@std@@PEAX@0@AEBQEAU10@@Z
	??$forward@AEBQEAU?$pair@PEAUggml_backend_device@@PEAUggml_backend_buffer_type@@@std@@@std@@YAAEBQEAU?$pair@PEAUggml_backend_device@@PEAUggml_backend_buffer_type@@@0@AEBQEAU10@@Z
	??$forward@AEBQEAUggml_backend@@@std@@YAAEBQEAUggml_backend@@AEBQEAU1@@Z
	??$forward@AEBQEAUggml_backend_buffer_type@@@std@@YAAEBQEAUggml_backend_buffer_type@@AEBQEAU1@@Z
	??$forward@AEBQEA_W@std@@YAAEBQEA_WAEBQEA_W@Z
	??$forward@AEBU?$less@H@std@@@std@@YAAEBU?$less@H@0@AEBU10@@Z
	??$forward@AEBU?$less@PEAUggml_backend_buffer_type@@@std@@@std@@YAAEBU?$less@PEAUggml_backend_buffer_type@@@0@AEBU10@@Z
	??$forward@AEBU?$less@V?$basic_string@DU?$char_traits@D@std@@V?$allocator@D@2@@std@@@std@@@std@@YAAEBU?$less@V?$basic_string@DU?$char_traits@D@std@@V?$allocator@D@2@@std@@@0@AEBU10@@Z
	??$forward@AEBU?$less@W4parakeet_tensor@@@std@@@std@@YAAEBU?$less@W4parakeet_tensor@@@0@AEBU10@@Z
	??$forward@AEBU?$pair@$$CBW4parakeet_tensor@@PEBD@std@@@std@@YAAEBU?$pair@$$CBW4parakeet_tensor@@PEBD@0@AEBU10@@Z
	??$forward@AEBU?$pair@$$CBW4parakeet_tensor@@W4ggml_op@@@std@@@std@@YAAEBU?$pair@$$CBW4parakeet_tensor@@W4ggml_op@@@0@AEBU10@@Z
	??$forward@AEBUparakeet_token_data@@@std@@YAAEBUparakeet_token_data@@AEBU1@@Z
	??$forward@AEBUpiecewise_construct_t@std@@@std@@YAAEBUpiecewise_construct_t@0@AEBU10@@Z
	??$forward@AEBV?$allocator@D@std@@@std@@YAAEBV?$allocator@D@0@AEBV10@@Z
	??$forward@AEBV?$allocator@M@std@@@std@@YAAEBV?$allocator@M@0@AEBV10@@Z
	??$forward@AEBV?$allocator@Vthread@std@@@std@@@std@@YAAEBV?$allocator@Vthread@std@@@0@AEBV10@@Z
	??$forward@AEBV?$basic_string@DU?$char_traits@D@std@@V?$allocator@D@2@@std@@@std@@YAAEBV?$basic_string@DU?$char_traits@D@std@@V?$allocator@D@2@@0@AEBV10@@Z
	??$forward@D@std@@YA$$QEADAEAD@Z
	??$forward@E@std@@YA$$QEAEAEAE@Z
	??$forward@H@std@@YA$$QEAHAEAH@Z
	??$forward@I@std@@YA$$QEAIAEAI@Z
	??$forward@M@std@@YA$$QEAMAEAM@Z
	??$forward@PEAH@std@@YA$$QEAPEAHAEAPEAH@Z
	??$forward@PEAM@std@@YA$$QEAPEAMAEAPEAM@Z
	??$forward@PEAPEAUggml_backend@@@std@@YA$$QEAPEAPEAUggml_backend@@AEAPEAPEAU1@@Z
	??$forward@PEAU?$_Tree_node@U?$pair@$$CBHV?$basic_string@DU?$char_traits@D@std@@V?$allocator@D@2@@std@@@std@@PEAX@std@@@std@@YA$$QEAPEAU?$_Tree_node@U?$pair@$$CBHV?$basic_string@DU?$char_traits@D@std@@V?$allocator@D@2@@std@@@std@@PEAX@0@AEAPEAU10@@Z
	??$forward@PEAU?$_Tree_node@U?$pair@$$CBV?$basic_string@DU?$char_traits@D@std@@V?$allocator@D@2@@std@@H@std@@PEAX@std@@@std@@YA$$QEAPEAU?$_Tree_node@U?$pair@$$CBV?$basic_string@DU?$char_traits@D@std@@V?$allocator@D@2@@std@@H@std@@PEAX@0@AEAPEAU10@@Z
	??$forward@PEAU?$_Tree_node@U?$pair@$$CBV?$basic_string@DU?$char_traits@D@std@@V?$allocator@D@2@@std@@PEAUggml_tensor@@@std@@PEAX@std@@@std@@YA$$QEAPEAU?$_Tree_node@U?$pair@$$CBV?$basic_string@DU?$char_traits@D@std@@V?$allocator@D@2@@std@@PEAUggml_tensor@@@std@@PEAX@0@AEAPEAU10@@Z
	??$forward@PEAU?$_Tree_node@U?$pair@QEAUggml_backend_buffer_type@@PEAUggml_context@@@std@@PEAX@std@@@std@@YA$$QEAPEAU?$_Tree_node@U?$pair@QEAUggml_backend_buffer_type@@PEAUggml_context@@@std@@PEAX@0@AEAPEAU10@@Z
	??$forward@PEAU?$pair@PEAUggml_backend_device@@PEAUggml_backend_buffer_type@@@std@@@std@@YA$$QEAPEAU?$pair@PEAUggml_backend_device@@PEAUggml_backend_buffer_type@@@0@AEAPEAU10@@Z
	??$forward@PEAUggml_backend@@@std@@YA$$QEAPEAUggml_backend@@AEAPEAU1@@Z
	??$forward@PEAUggml_backend_buffer@@@std@@YA$$QEAPEAUggml_backend_buffer@@AEAPEAU1@@Z
	??$forward@PEAUggml_backend_buffer_type@@@std@@YA$$QEAPEAUggml_backend_buffer_type@@AEAPEAU1@@Z
	??$forward@PEAUggml_context@@@std@@YA$$QEAPEAUggml_context@@AEAPEAU1@@Z
	??$forward@PEAUparakeet_token_data@@@std@@YA$$QEAPEAUparakeet_token_data@@AEAPEAU1@@Z
	??$forward@PEAV?$tuple@P6AXUmel_worker_params@@PEBMAEBV?$vector@MV?$allocator@M@std@@@std@@AEBUparakeet_filters@@AEAUparakeet_mel@@AEBUparakeet_mel_cache@@@ZU1@PEBMV?$reference_wrapper@$$CBV?$vector@MV?$allocator@M@std@@@std@@@3@V?$reference_wrapper@$$CBUparakeet_filters@@@3@V?$reference_wrapper@Uparakeet_mel@@@3@V?$reference_wrapper@$$CBUparakeet_mel_cache@@@3@@std@@@std@@YA$$QEAPEAV?$tuple@P6AXUmel_worker_params@@PEBMAEBV?$vector@MV?$allocator@M@std@@@std@@AEBUparakeet_filters@@AEAUparakeet_mel@@AEBUparakeet_mel_cache@@@ZU1@PEBMV?$reference_wrapper@$$CBV?$vector@MV?$allocator@M@std@@@std@@@3@V?$reference_wrapper@$$CBUparakeet_filters@@@3@V?$reference_wrapper@Uparakeet_mel@@@3@V?$reference_wrapper@$$CBUparakeet_mel_cache@@@3@@0@AEAPEAV10@@Z
	??$forward@PEBM@std@@YA$$QEAPEBMAEAPEBM@Z
	??$forward@U?$default_delete@V?$tuple@P6AXUmel_worker_params@@PEBMAEBV?$vector@MV?$allocator@M@std@@@std@@AEBUparakeet_filters@@AEAUparakeet_mel@@AEBUparakeet_mel_cache@@@ZU1@PEBMV?$reference_wrapper@$$CBV?$vector@MV?$allocator@M@std@@@std@@@3@V?$reference_wrapper@$$CBUparakeet_filters@@@3@V?$reference_wrapper@Uparakeet_mel@@@3@V?$reference_wrapper@$$CBUparakeet_mel_cache@@@3@@std@@@std@@@std@@YA$$QEAU?$default_delete@V?$tuple@P6AXUmel_worker_params@@PEBMAEBV?$vector@MV?$allocator@M@std@@@std@@AEBUparakeet_filters@@AEAUparakeet_mel@@AEBUparakeet_mel_cache@@@ZU1@PEBMV?$reference_wrapper@$$CBV?$vector@MV?$allocator@M@std@@@std@@@3@V?$reference_wrapper@$$CBUparakeet_filters@@@3@V?$reference_wrapper@Uparakeet_mel@@@3@V?$reference_wrapper@$$CBUparakeet_mel_cache@@@3@@std@@@0@AEAU10@@Z
	??$forward@U?$pair@PEAUggml_backend_device@@PEAUggml_backend_buffer_type@@@std@@@std@@YA$$QEAU?$pair@PEAUggml_backend_device@@PEAUggml_backend_buffer_type@@@0@AEAU10@@Z
	??$forward@U_Zero_then_variadic_args_t@std@@@std@@YA$$QEAU_Zero_then_variadic_args_t@0@AEAU10@@Z
	??$forward@Uparakeet_layer_encoder@@@std@@YA$$QEAUparakeet_layer_encoder@@AEAU1@@Z
	??$forward@Uparakeet_lsmt_layer@@@std@@YA$$QEAUparakeet_lsmt_layer@@AEAU1@@Z
	??$forward@Uparakeet_lstm_state_layer@@@std@@YA$$QEAUparakeet_lstm_state_layer@@AEAU1@@Z
	??$forward@Uparakeet_segment@@@std@@YA$$QEAUparakeet_segment@@AEAU1@@Z
	??$forward@Uparakeet_token_data@@@std@@YA$$QEAUparakeet_token_data@@AEAU1@@Z
	??$forward@V?$allocator@D@std@@@std@@YA$$QEAV?$allocator@D@0@AEAV10@@Z
	??$forward@V?$allocator@H@std@@@std@@YA$$QEAV?$allocator@H@0@AEAV10@@Z
	??$forward@V?$allocator@PEAUggml_backend@@@std@@@std@@YA$$QEAV?$allocator@PEAUggml_backend@@@0@AEAV10@@Z
	??$forward@V?$allocator@U?$pair@PEAUggml_backend_device@@PEAUggml_backend_buffer_type@@@std@@@std@@@std@@YA$$QEAV?$allocator@U?$pair@PEAUggml_backend_device@@PEAUggml_backend_buffer_type@@@std@@@0@AEAV10@@Z
	??$forward@V?$allocator@Uparakeet_token_data@@@std@@@std@@YA$$QEAV?$allocator@Uparakeet_token_data@@@0@AEAV10@@Z
	??$forward@V?$allocator@_W@std@@@std@@YA$$QEAV?$allocator@_W@0@AEAV10@@Z
	??$forward@V?$basic_string@DU?$char_traits@D@std@@V?$allocator@D@2@@std@@@std@@YA$$QEAV?$basic_string@DU?$char_traits@D@std@@V?$allocator@D@2@@0@AEAV10@@Z
	??$forward@V?$reference_wrapper@$$CBUparakeet_filters@@@std@@@std@@YA$$QEAV?$reference_wrapper@$$CBUparakeet_filters@@@0@AEAV10@@Z
	??$forward@V?$reference_wrapper@$$CBUparakeet_mel_cache@@@std@@@std@@YA$$QEAV?$reference_wrapper@$$CBUparakeet_mel_cache@@@0@AEAV10@@Z
	??$forward@V?$reference_wrapper@$$CBV?$vector@MV?$allocator@M@std@@@std@@@std@@@std@@YA$$QEAV?$reference_wrapper@$$CBV?$vector@MV?$allocator@M@std@@@std@@@0@AEAV10@@Z
	??$forward@V?$reference_wrapper@Uparakeet_mel@@@std@@@std@@YA$$QEAV?$reference_wrapper@Uparakeet_mel@@@0@AEAV10@@Z
	??$forward@V?$tuple@$$QEAV?$basic_string@DU?$char_traits@D@std@@V?$allocator@D@2@@std@@@std@@@std@@YA$$QEAV?$tuple@$$QEAV?$basic_string@DU?$char_traits@D@std@@V?$allocator@D@2@@std@@@0@AEAV10@@Z
	??$forward@V?$tuple@$$V@std@@@std@@YA$$QEAV?$tuple@$$V@0@AEAV10@@Z
	??$forward@V?$tuple@AEBH@std@@@std@@YA$$QEAV?$tuple@AEBH@0@AEAV10@@Z
	??$forward@V?$tuple@AEBQEAUggml_backend_buffer_type@@@std@@@std@@YA$$QEAV?$tuple@AEBQEAUggml_backend_buffer_type@@@0@AEAV10@@Z
	??$forward@V?$tuple@AEBV?$basic_string@DU?$char_traits@D@std@@V?$allocator@D@2@@std@@@std@@@std@@YA$$QEAV?$tuple@AEBV?$basic_string@DU?$char_traits@D@std@@V?$allocator@D@2@@std@@@0@AEAV10@@Z
	??$forward@W4ggml_op@@@std@@YA$$QEAW4ggml_op@@AEAW41@@Z
	??$forward@W4parakeet_tensor@@@std@@YA$$QEAW4parakeet_tensor@@AEAW41@@Z
	??$forward@_N@std@@YA$$QEA_NAEA_N@Z
	??$forward_as_tuple@$$V@std@@YA?AV?$tuple@$$V@0@XZ
	??$forward_as_tuple@AEBH@std@@YA?AV?$tuple@AEBH@0@AEBH@Z
	??$forward_as_tuple@AEBQEAUggml_backend_buffer_type@@@std@@YA?AV?$tuple@AEBQEAUggml_backend_buffer_type@@@0@AEBQEAUggml_backend_buffer_type@@@Z
	??$forward_as_tuple@AEBV?$basic_string@DU?$char_traits@D@std@@V?$allocator@D@2@@std@@@std@@YA?AV?$tuple@AEBV?$basic_string@DU?$char_traits@D@std@@V?$allocator@D@2@@std@@@0@AEBV?$basic_string@DU?$char_traits@D@std@@V?$allocator@D@2@@0@@Z
	??$forward_as_tuple@V?$basic_string@DU?$char_traits@D@std@@V?$allocator@D@2@@std@@@std@@YA?AV?$tuple@$$QEAV?$basic_string@DU?$char_traits@D@std@@V?$allocator@D@2@@std@@@0@$$QEAV?$basic_string@DU?$char_traits@D@std@@V?$allocator@D@2@@0@@Z
	??$get@$00P6AXUmel_worker_params@@PEBMAEBV?$vector@MV?$allocator@M@std@@@std@@AEBUparakeet_filters@@AEAUparakeet_mel@@AEBUparakeet_mel_cache@@@ZU1@PEBMV?$reference_wrapper@$$CBV?$vector@MV?$allocator@M@std@@@std@@@3@V?$reference_wrapper@$$CBUparakeet_filters@@@3@V?$reference_wrapper@Uparakeet_mel@@@3@V?$reference_wrapper@$$CBUparakeet_mel_cache@@@3@@std@@YAAEAUmel_worker_params@@AEAV?$tuple@P6AXUmel_worker_params@@PEBMAEBV?$vector@MV?$allocator@M@std@@@std@@AEBUparakeet_filters@@AEAUparakeet_mel@@AEBUparakeet_mel_cache@@@ZU1@PEBMV?$reference_wrapper@$$CBV?$vector@MV?$allocator@M@std@@@std@@@3@V?$reference_wrapper@$$CBUparakeet_filters@@@3@V?$reference_wrapper@Uparakeet_mel@@@3@V?$reference_wrapper@$$CBUparakeet_mel_cache@@@3@@0@@Z
	??$get@$01P6AXUmel_worker_params@@PEBMAEBV?$vector@MV?$allocator@M@std@@@std@@AEBUparakeet_filters@@AEAUparakeet_mel@@AEBUparakeet_mel_cache@@@ZU1@PEBMV?$reference_wrapper@$$CBV?$vector@MV?$allocator@M@std@@@std@@@3@V?$reference_wrapper@$$CBUparakeet_filters@@@3@V?$reference_wrapper@Uparakeet_mel@@@3@V?$reference_wrapper@$$CBUparakeet_mel_cache@@@3@@std@@YAAEAPEBMAEAV?$tuple@P6AXUmel_worker_params@@PEBMAEBV?$vector@MV?$allocator@M@std@@@std@@AEBUparakeet_filters@@AEAUparakeet_mel@@AEBUparakeet_mel_cache@@@ZU1@PEBMV?$reference_wrapper@$$CBV?$vector@MV?$allocator@M@std@@@std@@@3@V?$reference_wrapper@$$CBUparakeet_filters@@@3@V?$reference_wrapper@Uparakeet_mel@@@3@V?$reference_wrapper@$$CBUparakeet_mel_cache@@@3@@0@@Z
	??$get@$02P6AXUmel_worker_params@@PEBMAEBV?$vector@MV?$allocator@M@std@@@std@@AEBUparakeet_filters@@AEAUparakeet_mel@@AEBUparakeet_mel_cache@@@ZU1@PEBMV?$reference_wrapper@$$CBV?$vector@MV?$allocator@M@std@@@std@@@3@V?$reference_wrapper@$$CBUparakeet_filters@@@3@V?$reference_wrapper@Uparakeet_mel@@@3@V?$reference_wrapper@$$CBUparakeet_mel_cache@@@3@@std@@YAAEAV?$reference_wrapper@$$CBV?$vector@MV?$allocator@M@std@@@std@@@0@AEAV?$tuple@P6AXUmel_worker_params@@PEBMAEBV?$vector@MV?$allocator@M@std@@@std@@AEBUparakeet_filters@@AEAUparakeet_mel@@AEBUparakeet_mel_cache@@@ZU1@PEBMV?$reference_wrapper@$$CBV?$vector@MV?$allocator@M@std@@@std@@@3@V?$reference_wrapper@$$CBUparakeet_filters@@@3@V?$reference_wrapper@Uparakeet_mel@@@3@V?$reference_wrapper@$$CBUparakeet_mel_cache@@@3@@0@@Z
	??$get@$03P6AXUmel_worker_params@@PEBMAEBV?$vector@MV?$allocator@M@std@@@std@@AEBUparakeet_filters@@AEAUparakeet_mel@@AEBUparakeet_mel_cache@@@ZU1@PEBMV?$reference_wrapper@$$CBV?$vector@MV?$allocator@M@std@@@std@@@3@V?$reference_wrapper@$$CBUparakeet_filters@@@3@V?$reference_wrapper@Uparakeet_mel@@@3@V?$reference_wrapper@$$CBUparakeet_mel_cache@@@3@@std@@YAAEAV?$reference_wrapper@$$CBUparakeet_filters@@@0@AEAV?$tuple@P6AXUmel_worker_params@@PEBMAEBV?$vector@MV?$allocator@M@std@@@std@@AEBUparakeet_filters@@AEAUparakeet_mel@@AEBUparakeet_mel_cache@@@ZU1@PEBMV?$reference_wrapper@$$CBV?$vector@MV?$allocator@M@std@@@std@@@3@V?$reference_wrapper@$$CBUparakeet_filters@@@3@V?$reference_wrapper@Uparakeet_mel@@@3@V?$reference_wrapper@$$CBUparakeet_mel_cache@@@3@@0@@Z
	??$get@$04P6AXUmel_worker_params@@PEBMAEBV?$vector@MV?$allocator@M@std@@@std@@AEBUparakeet_filters@@AEAUparakeet_mel@@AEBUparakeet_mel_cache@@@ZU1@PEBMV?$reference_wrapper@$$CBV?$vector@MV?$allocator@M@std@@@std@@@3@V?$reference_wrapper@$$CBUparakeet_filters@@@3@V?$reference_wrapper@Uparakeet_mel@@@3@V?$reference_wrapper@$$CBUparakeet_mel_cache@@@3@@std@@YAAEAV?$reference_wrapper@Uparakeet_mel@@@0@AEAV?$tuple@P6AXUmel_worker_params@@PEBMAEBV?$vector@MV?$allocator@M@std@@@std@@AEBUparakeet_filters@@AEAUparakeet_mel@@AEBUparakeet_mel_cache@@@ZU1@PEBMV?$reference_wrapper@$$CBV?$vector@MV?$allocator@M@std@@@std@@@3@V?$reference_wrapper@$$CBUparakeet_filters@@@3@V?$reference_wrapper@Uparakeet_mel@@@3@V?$reference_wrapper@$$CBUparakeet_mel_cache@@@3@@0@@Z
	??$get@$05P6AXUmel_worker_params@@PEBMAEBV?$vector@MV?$allocator@M@std@@@std@@AEBUparakeet_filters@@AEAUparakeet_mel@@AEBUparakeet_mel_cache@@@ZU1@PEBMV?$reference_wrapper@$$CBV?$vector@MV?$allocator@M@std@@@std@@@3@V?$reference_wrapper@$$CBUparakeet_filters@@@3@V?$reference_wrapper@Uparakeet_mel@@@3@V?$reference_wrapper@$$CBUparakeet_mel_cache@@@3@@std@@YAAEAV?$reference_wrapper@$$CBUparakeet_mel_cache@@@0@AEAV?$tuple@P6AXUmel_worker_params@@PEBMAEBV?$vector@MV?$allocator@M@std@@@std@@AEBUparakeet_filters@@AEAUparakeet_mel@@AEBUparakeet_mel_cache@@@ZU1@PEBMV?$reference_wrapper@$$CBV?$vector@MV?$allocator@M@std@@@std@@@3@V?$reference_wrapper@$$CBUparakeet_filters@@@3@V?$reference_wrapper@Uparakeet_mel@@@3@V?$reference_wrapper@$$CBUparakeet_mel_cache@@@3@@0@@Z
	??$get@$0A@P6AXUmel_worker_params@@PEBMAEBV?$vector@MV?$allocator@M@std@@@std@@AEBUparakeet_filters@@AEAUparakeet_mel@@AEBUparakeet_mel_cache@@@ZU1@PEBMV?$reference_wrapper@$$CBV?$vector@MV?$allocator@M@std@@@std@@@3@V?$reference_wrapper@$$CBUparakeet_filters@@@3@V?$reference_wrapper@Uparakeet_mel@@@3@V?$reference_wrapper@$$CBUparakeet_mel_cache@@@3@@std@@YAAEAP6AXUmel_worker_params@@PEBMAEBV?$vector@MV?$allocator@M@std@@@0@AEBUparakeet_filters@@AEAUparakeet_mel@@AEBUparakeet_mel_cache@@@ZAEAV?$tuple@P6AXUmel_worker_params@@PEBMAEBV?$vector@MV?$allocator@M@std@@@std@@AEBUparakeet_filters@@AEAUparakeet_mel@@AEBUparakeet_mel_cache@@@ZU1@PEBMV?$reference_wrapper@$$CBV?$vector@MV?$allocator@M@std@@@std@@@3@V?$reference_wrapper@$$CBUparakeet_filters@@@3@V?$reference_wrapper@Uparakeet_mel@@@3@V?$reference_wrapper@$$CBUparakeet_mel_cache@@@3@@0@@Z
	??$invoke@P6AXUmel_worker_params@@PEBMAEBV?$vector@MV?$allocator@M@std@@@std@@AEBUparakeet_filters@@AEAUparakeet_mel@@AEBUparakeet_mel_cache@@@ZU1@PEBMV?$reference_wrapper@$$CBV?$vector@MV?$allocator@M@std@@@std@@@3@V?$reference_wrapper@$$CBUparakeet_filters@@@3@V?$reference_wrapper@Uparakeet_mel@@@3@V?$reference_wrapper@$$CBUparakeet_mel_cache@@@3@@std@@YAX$$QEAP6AXUmel_worker_params@@PEBMAEBV?$vector@MV?$allocator@M@std@@@0@AEBUparakeet_filters@@AEAUparakeet_mel@@AEBUparakeet_mel_cache@@@Z$$QEAU1@$$QEAPEBM$$QEAV?$reference_wrapper@$$CBV?$vector@MV?$allocator@M@std@@@std@@@0@$$QEAV?$reference_wrapper@$$CBUparakeet_filters@@@0@$$QEAV?$reference_wrapper@Uparakeet_mel@@@0@$$QEAV?$reference_wrapper@$$CBUparakeet_mel_cache@@@0@@Z
	??$make_unique@V?$tuple@P6AXUmel_worker_params@@PEBMAEBV?$vector@MV?$allocator@M@std@@@std@@AEBUparakeet_filters@@AEAUparakeet_mel@@AEBUparakeet_mel_cache@@@ZU1@PEBMV?$reference_wrapper@$$CBV?$vector@MV?$allocator@M@std@@@std@@@3@V?$reference_wrapper@$$CBUparakeet_filters@@@3@V?$reference_wrapper@Uparakeet_mel@@@3@V?$reference_wrapper@$$CBUparakeet_mel_cache@@@3@@std@@A6AXUmel_worker_params@@PEBMAEBV?$vector@MV?$allocator@M@std@@@2@AEBUparakeet_filters@@AEAUparakeet_mel@@AEBUparakeet_mel_cache@@@ZAEAU3@AEAPEBMV?$reference_wrapper@$$CBV?$vector@MV?$allocator@M@std@@@std@@@2@V?$reference_wrapper@$$CBUparakeet_filters@@@2@V?$reference_wrapper@Uparakeet_mel@@@2@V?$reference_wrapper@$$CBUparakeet_mel_cache@@@2@$0A@@std@@YA?AV?$unique_ptr@V?$tuple@P6AXUmel_worker_params@@PEBMAEBV?$vector@MV?$allocator@M@std@@@std@@AEBUparakeet_filters@@AEAUparakeet_mel@@AEBUparakeet_mel_cache@@@ZU1@PEBMV?$reference_wrapper@$$CBV?$vector@MV?$allocator@M@std@@@std@@@3@V?$reference_wrapper@$$CBUparakeet_filters@@@3@V?$reference_wrapper@Uparakeet_mel@@@3@V?$reference_wrapper@$$CBUparakeet_mel_cache@@@3@@std@@U?$default_delete@V?$tuple@P6AXUmel_worker_params@@PEBMAEBV?$vector@MV?$allocator@M@std@@@std@@AEBUparakeet_filters@@AEAUparakeet_mel@@AEBUparakeet_mel_cache@@@ZU1@PEBMV?$reference_wrapper@$$CBV?$vector@MV?$allocator@M@std@@@std@@@3@V?$reference_wrapper@$$CBUparakeet_filters@@@3@V?$reference_wrapper@Uparakeet_mel@@@3@V?$reference_wrapper@$$CBUparakeet_mel_cache@@@3@@std@@@2@@0@A6AXUmel_worker_params@@PEBMAEBV?$vector@MV?$allocator@M@std@@@0@AEBUparakeet_filters@@AEAUparakeet_mel@@AEBUparakeet_mel_cache@@@ZAEAU2@AEAPEBM$$QEAV?$reference_wrapper@$$CBV?$vector@MV?$allocator@M@std@@@std@@@0@$$QEAV?$reference_wrapper@$$CBUparakeet_filters@@@0@$$QEAV?$reference_wrapper@Uparakeet_mel@@@0@$$QEAV?$reference_wrapper@$$CBUparakeet_mel_cache@@@0@@Z
	??$max@H@std@@YAAEBHAEBH0@Z
	??$max@_K@std@@YAAEB_KAEB_K0@Z
	??$min@H@std@@YAAEBHAEBH0@Z
	??$min@H@std@@YAHV?$initializer_list@H@0@@Z
	??$min@HU?$less@X@std@@@std@@YAHV?$initializer_list@H@0@U?$less@X@0@@Z
	??$min@_J@std@@YAAEB_JAEB_J0@Z
	??$min@_K@std@@YAAEB_KAEB_K0@Z
	??$move@AEAD@std@@YA$$QEADAEAD@Z
	??$move@AEAE@std@@YA$$QEAEAEAE@Z
	??$move@AEAH@std@@YA$$QEAHAEAH@Z
	??$move@AEAI@std@@YA$$QEAIAEAI@Z
	??$move@AEAM@std@@YA$$QEAMAEAM@Z
	??$move@AEAP6AXUmel_worker_params@@PEBMAEBV?$vector@MV?$allocator@M@std@@@std@@AEBUparakeet_filters@@AEAUparakeet_mel@@AEBUparakeet_mel_cache@@@Z@std@@YA$$QEAP6AXUmel_worker_params@@PEBMAEBV?$vector@MV?$allocator@M@std@@@0@AEBUparakeet_filters@@AEAUparakeet_mel@@AEBUparakeet_mel_cache@@@ZAEAP6AX012345@Z@Z
	??$move@AEAPEAD@std@@YA$$QEAPEADAEAPEAD@Z
	??$move@AEAPEAE@std@@YA$$QEAPEAEAEAPEAE@Z
	??$move@AEAPEAH@std@@YA$$QEAPEAHAEAPEAH@Z
	??$move@AEAPEAI@std@@YA$$QEAPEAIAEAPEAI@Z
	??$move@AEAPEAM@std@@YA$$QEAPEAMAEAPEAM@Z
	??$move@AEAPEAPEAUggml_backend@@@std@@YA$$QEAPEAPEAUggml_backend@@AEAPEAPEAU1@@Z
	??$move@AEAPEAPEAUggml_backend_buffer@@@std@@YA$$QEAPEAPEAUggml_backend_buffer@@AEAPEAPEAU1@@Z
	??$move@AEAPEAPEAUggml_context@@@std@@YA$$QEAPEAPEAUggml_context@@AEAPEAPEAU1@@Z
	??$move@AEAPEAU?$pair@PEAUggml_backend_device@@PEAUggml_backend_buffer_type@@@std@@@std@@YA$$QEAPEAU?$pair@PEAUggml_backend_device@@PEAUggml_backend_buffer_type@@@0@AEAPEAU10@@Z
	??$move@AEAPEAUggml_backend@@@std@@YA$$QEAPEAUggml_backend@@AEAPEAU1@@Z
	??$move@AEAPEAUggml_backend_buffer@@@std@@YA$$QEAPEAUggml_backend_buffer@@AEAPEAU1@@Z
	??$move@AEAPEAUggml_context@@@std@@YA$$QEAPEAUggml_context@@AEAPEAU1@@Z
	??$move@AEAPEAUparakeet_layer_encoder@@@std@@YA$$QEAPEAUparakeet_layer_encoder@@AEAPEAU1@@Z
	??$move@AEAPEAUparakeet_lsmt_layer@@@std@@YA$$QEAPEAUparakeet_lsmt_layer@@AEAPEAU1@@Z
	??$move@AEAPEAUparakeet_lstm_state_layer@@@std@@YA$$QEAPEAUparakeet_lstm_state_layer@@AEAPEAU1@@Z
	??$move@AEAPEAUparakeet_token_data@@@std@@YA$$QEAPEAUparakeet_token_data@@AEAPEAU1@@Z
	??$move@AEAPEBM@std@@YA$$QEAPEBMAEAPEBM@Z
	??$move@AEAU?$pair@PEAUggml_backend_device@@PEAUggml_backend_buffer_type@@@std@@@std@@YA$$QEAU?$pair@PEAUggml_backend_device@@PEAUggml_backend_buffer_type@@@0@AEAU10@@Z
	??$move@AEAUmel_worker_params@@@std@@YA$$QEAUmel_worker_params@@AEAU1@@Z
	??$move@AEAUparakeet_layer_encoder@@@std@@YA$$QEAUparakeet_layer_encoder@@AEAU1@@Z
	??$move@AEAUparakeet_lsmt_layer@@@std@@YA$$QEAUparakeet_lsmt_layer@@AEAU1@@Z
	??$move@AEAUparakeet_lstm_state_layer@@@std@@YA$$QEAUparakeet_lstm_state_layer@@AEAU1@@Z
	??$move@AEAUparakeet_segment@@@std@@YA$$QEAUparakeet_segment@@AEAU1@@Z
	??$move@AEAUparakeet_token_data@@@std@@YA$$QEAUparakeet_token_data@@AEAU1@@Z
	??$move@AEAV?$_Vector_iterator@V?$_Vector_val@U?$_Simple_types@M@std@@@std@@@std@@@std@@YA$$QEAV?$_Vector_iterator@V?$_Vector_val@U?$_Simple_types@M@std@@@std@@@0@AEAV10@@Z
	??$move@AEAV?$allocator@D@std@@@std@@YA$$QEAV?$allocator@D@0@AEAV10@@Z
	??$move@AEAV?$allocator@H@std@@@std@@YA$$QEAV?$allocator@H@0@AEAV10@@Z
	??$move@AEAV?$allocator@PEAUggml_backend@@@std@@@std@@YA$$QEAV?$allocator@PEAUggml_backend@@@0@AEAV10@@Z
	??$move@AEAV?$allocator@U?$pair@PEAUggml_backend_device@@PEAUggml_backend_buffer_type@@@std@@@std@@@std@@YA$$QEAV?$allocator@U?$pair@PEAUggml_backend_device@@PEAUggml_backend_buffer_type@@@std@@@0@AEAV10@@Z
	??$move@AEAV?$allocator@Uparakeet_token_data@@@std@@@std@@YA$$QEAV?$allocator@Uparakeet_token_data@@@0@AEAV10@@Z
	??$move@AEAV?$allocator@_W@std@@@std@@YA$$QEAV?$allocator@_W@0@AEAV10@@Z
	??$move@AEAV?$basic_string@DU?$char_traits@D@std@@V?$allocator@D@2@@std@@@std@@YA$$QEAV?$basic_string@DU?$char_traits@D@std@@V?$allocator@D@2@@0@AEAV10@@Z
	??$move@AEAV?$reference_wrapper@$$CBUparakeet_filters@@@std@@@std@@YA$$QEAV?$reference_wrapper@$$CBUparakeet_filters@@@0@AEAV10@@Z
	??$move@AEAV?$reference_wrapper@$$CBUparakeet_mel_cache@@@std@@@std@@YA$$QEAV?$reference_wrapper@$$CBUparakeet_mel_cache@@@0@AEAV10@@Z
	??$move@AEAV?$reference_wrapper@$$CBV?$vector@MV?$allocator@M@std@@@std@@@std@@@std@@YA$$QEAV?$reference_wrapper@$$CBV?$vector@MV?$allocator@M@std@@@std@@@0@AEAV10@@Z
	??$move@AEAV?$reference_wrapper@Uparakeet_mel@@@std@@@std@@YA$$QEAV?$reference_wrapper@Uparakeet_mel@@@0@AEAV10@@Z
	??$move@AEAV?$tuple@$$QEAV?$basic_string@DU?$char_traits@D@std@@V?$allocator@D@2@@std@@@std@@@std@@YA$$QEAV?$tuple@$$QEAV?$basic_string@DU?$char_traits@D@std@@V?$allocator@D@2@@std@@@0@AEAV10@@Z
	??$move@AEAV?$tuple@AEBH@std@@@std@@YA$$QEAV?$tuple@AEBH@0@AEAV10@@Z
	??$move@AEAV?$tuple@AEBQEAUggml_backend_buffer_type@@@std@@@std@@YA$$QEAV?$tuple@AEBQEAUggml_backend_buffer_type@@@0@AEAV10@@Z
	??$move@AEAV?$tuple@AEBV?$basic_string@DU?$char_traits@D@std@@V?$allocator@D@2@@std@@@std@@@std@@YA$$QEAV?$tuple@AEBV?$basic_string@DU?$char_traits@D@std@@V?$allocator@D@2@@std@@@0@AEAV10@@Z
	??$ref@Uparakeet_mel@@@std@@YA?AV?$reference_wrapper@Uparakeet_mel@@@0@AEAUparakeet_mel@@@Z
	??$sqrt@H$0A@@@YANH@Z
	??$use_facet@V?$codecvt@DDU_Mbstatet@@@std@@@std@@YAAEBV?$codecvt@DDU_Mbstatet@@@0@AEBVlocale@0@@Z
	??0?$_Alloc_construct_ptr@V?$allocator@U?$_Tree_node@U?$pair@$$CBHV?$basic_string@DU?$char_traits@D@std@@V?$allocator@D@2@@std@@@std@@PEAX@std@@@std@@@std@@QEAA@AEAV?$allocator@U?$_Tree_node@U?$pair@$$CBHV?$basic_string@DU?$char_traits@D@std@@V?$allocator@D@2@@std@@@std@@PEAX@std@@@1@@Z
	??0?$_Alloc_construct_ptr@V?$allocator@U?$_Tree_node@U?$pair@$$CBV?$basic_string@DU?$char_traits@D@std@@V?$allocator@D@2@@std@@H@std@@PEAX@std@@@std@@@std@@QEAA@AEAV?$allocator@U?$_Tree_node@U?$pair@$$CBV?$basic_string@DU?$char_traits@D@std@@V?$allocator@D@2@@std@@H@std@@PEAX@std@@@1@@Z
	??0?$_Alloc_construct_ptr@V?$allocator@U?$_Tree_node@U?$pair@$$CBV?$basic_string@DU?$char_traits@D@std@@V?$allocator@D@2@@std@@PEAUggml_tensor@@@std@@PEAX@std@@@std@@@std@@QEAA@AEAV?$allocator@U?$_Tree_node@U?$pair@$$CBV?$basic_string@DU?$char_traits@D@std@@V?$allocator@D@2@@std@@PEAUggml_tensor@@@std@@PEAX@std@@@1@@Z
	??0?$_Alloc_construct_ptr@V?$allocator@U?$_Tree_node@U?$pair@$$CBW4parakeet_tensor@@PEBD@std@@PEAX@std@@@std@@@std@@QEAA@AEAV?$allocator@U?$_Tree_node@U?$pair@$$CBW4parakeet_tensor@@PEBD@std@@PEAX@std@@@1@@Z
	??0?$_Alloc_construct_ptr@V?$allocator@U?$_Tree_node@U?$pair@$$CBW4parakeet_tensor@@W4ggml_op@@@std@@PEAX@std@@@std@@@std@@QEAA@AEAV?$allocator@U?$_Tree_node@U?$pair@$$CBW4parakeet_tensor@@W4ggml_op@@@std@@PEAX@std@@@1@@Z
	??0?$_Alloc_construct_ptr@V?$allocator@U?$_Tree_node@U?$pair@QEAUggml_backend_buffer_type@@PEAUggml_context@@@std@@PEAX@std@@@std@@@std@@QEAA@AEAV?$allocator@U?$_Tree_node@U?$pair@QEAUggml_backend_buffer_type@@PEAUggml_context@@@std@@PEAX@std@@@1@@Z
	??0?$_Func_base@PEAUggml_cgraph@@$$V@std@@QEAA@XZ
	??0?$_Func_class@PEAUggml_cgraph@@$$V@std@@QEAA@XZ
	??0?$_String_val@U?$_Simple_types@D@std@@@std@@QEAA@XZ
	??0?$_String_val@U?$_Simple_types@_W@std@@@std@@QEAA@XZ
	??0?$_Tree@V?$_Tmap_traits@HV?$basic_string@DU?$char_traits@D@std@@V?$allocator@D@2@@std@@U?$less@H@2@V?$allocator@U?$pair@$$CBHV?$basic_string@DU?$char_traits@D@std@@V?$allocator@D@2@@std@@@std@@@2@$0A@@std@@@std@@QEAA@AEBU?$less@H@1@@Z
	??0?$_Tree@V?$_Tmap_traits@PEAUggml_backend_buffer_type@@PEAUggml_context@@U?$less@PEAUggml_backend_buffer_type@@@std@@V?$allocator@U?$pair@QEAUggml_backend_buffer_type@@PEAUggml_context@@@std@@@4@$0A@@std@@@std@@QEAA@AEBU?$less@PEAUggml_backend_buffer_type@@@1@@Z
	??0?$_Tree@V?$_Tmap_traits@V?$basic_string@DU?$char_traits@D@std@@V?$allocator@D@2@@std@@HU?$less@V?$basic_string@DU?$char_traits@D@std@@V?$allocator@D@2@@std@@@2@V?$allocator@U?$pair@$$CBV?$basic_string@DU?$char_traits@D@std@@V?$allocator@D@2@@std@@H@std@@@2@$0A@@std@@@std@@QEAA@AEBU?$less@V?$basic_string@DU?$char_traits@D@std@@V?$allocator@D@2@@std@@@1@@Z
	??0?$_Tree@V?$_Tmap_traits@V?$basic_string@DU?$char_traits@D@std@@V?$allocator@D@2@@std@@PEAUggml_tensor@@U?$less@V?$basic_string@DU?$char_traits@D@std@@V?$allocator@D@2@@std@@@2@V?$allocator@U?$pair@$$CBV?$basic_string@DU?$char_traits@D@std@@V?$allocator@D@2@@std@@PEAUggml_tensor@@@std@@@2@$0A@@std@@@std@@QEAA@AEBU?$less@V?$basic_string@DU?$char_traits@D@std@@V?$allocator@D@2@@std@@@1@@Z
	??0?$_Tree@V?$_Tmap_traits@W4parakeet_tensor@@PEBDU?$less@W4parakeet_tensor@@@std@@V?$allocator@U?$pair@$$CBW4parakeet_tensor@@PEBD@std@@@3@$0A@@std@@@std@@QEAA@AEBU?$less@W4parakeet_tensor@@@1@@Z
	??0?$_Tree@V?$_Tmap_traits@W4parakeet_tensor@@W4ggml_op@@U?$less@W4parakeet_tensor@@@std@@V?$allocator@U?$pair@$$CBW4parakeet_tensor@@W4ggml_op@@@std@@@4@$0A@@std@@@std@@QEAA@AEBU?$less@W4parakeet_tensor@@@1@@Z
	??0?$_Tree_const_iterator@V?$_Tree_val@U?$_Tree_simple_types@U?$pair@$$CBV?$basic_string@DU?$char_traits@D@std@@V?$allocator@D@2@@std@@H@std@@@std@@@std@@@std@@QEAA@PEAU?$_Tree_node@U?$pair@$$CBV?$basic_string@DU?$char_traits@D@std@@V?$allocator@D@2@@std@@H@std@@PEAX@1@PEBV?$_Tree_val@U?$_Tree_simple_types@U?$pair@$$CBV?$basic_string@DU?$char_traits@D@std@@V?$allocator@D@2@@std@@H@std@@@std@@@1@@Z
	??0?$_Tree_const_iterator@V?$_Tree_val@U?$_Tree_simple_types@U?$pair@$$CBV?$basic_string@DU?$char_traits@D@std@@V?$allocator@D@2@@std@@PEAUggml_tensor@@@std@@@std@@@std@@@std@@QEAA@PEAU?$_Tree_node@U?$pair@$$CBV?$basic_string@DU?$char_traits@D@std@@V?$allocator@D@2@@std@@PEAUggml_tensor@@@std@@PEAX@1@PEBV?$_Tree_val@U?$_Tree_simple_types@U?$pair@$$CBV?$basic_string@DU?$char_traits@D@std@@V?$allocator@D@2@@std@@PEAUggml_tensor@@@std@@@std@@@1@@Z
	??0?$_Tree_const_iterator@V?$_Tree_val@U?$_Tree_simple_types@U?$pair@QEAUggml_backend_buffer_type@@PEAUggml_context@@@std@@@std@@@std@@@std@@QEAA@PEAU?$_Tree_node@U?$pair@QEAUggml_backend_buffer_type@@PEAUggml_context@@@std@@PEAX@1@PEBV?$_Tree_val@U?$_Tree_simple_types@U?$pair@QEAUggml_backend_buffer_type@@PEAUggml_context@@@std@@@std@@@1@@Z
	??0?$_Tree_iterator@V?$_Tree_val@U?$_Tree_simple_types@U?$pair@$$CBV?$basic_string@DU?$char_traits@D@std@@V?$allocator@D@2@@std@@H@std@@@std@@@std@@@std@@QEAA@PEAU?$_Tree_node@U?$pair@$$CBV?$basic_string@DU?$char_traits@D@std@@V?$allocator@D@2@@std@@H@std@@PEAX@1@PEBV?$_Tree_val@U?$_Tree_simple_types@U?$pair@$$CBV?$basic_string@DU?$char_traits@D@std@@V?$allocator@D@2@@std@@H@std@@@std@@@1@@Z
	??0?$_Tree_iterator@V?$_Tree_val@U?$_Tree_simple_types@U?$pair@$$CBV?$basic_string@DU?$char_traits@D@std@@V?$allocator@D@2@@std@@PEAUggml_tensor@@@std@@@std@@@std@@@std@@QEAA@PEAU?$_Tree_node@U?$pair@$$CBV?$basic_string@DU?$char_traits@D@std@@V?$allocator@D@2@@std@@PEAUggml_tensor@@@std@@PEAX@1@PEBV?$_Tree_val@U?$_Tree_simple_types@U?$pair@$$CBV?$basic_string@DU?$char_traits@D@std@@V?$allocator@D@2@@std@@PEAUggml_tensor@@@std@@@std@@@1@@Z
	??0?$_Tree_iterator@V?$_Tree_val@U?$_Tree_simple_types@U?$pair@QEAUggml_backend_buffer_type@@PEAUggml_context@@@std@@@std@@@std@@@std@@QEAA@PEAU?$_Tree_node@U?$pair@QEAUggml_backend_buffer_type@@PEAUggml_context@@@std@@PEAX@1@PEBV?$_Tree_val@U?$_Tree_simple_types@U?$pair@QEAUggml_backend_buffer_type@@PEAUggml_context@@@std@@@std@@@1@@Z
	??0?$_Tree_temp_node_alloc@V?$allocator@U?$_Tree_node@U?$pair@$$CBHV?$basic_string@DU?$char_traits@D@std@@V?$allocator@D@2@@std@@@std@@PEAX@std@@@std@@@std@@QEAA@AEAV?$allocator@U?$_Tree_node@U?$pair@$$CBHV?$basic_string@DU?$char_traits@D@std@@V?$allocator@D@2@@std@@@std@@PEAX@std@@@1@@Z
	??0?$_Tree_temp_node_alloc@V?$allocator@U?$_Tree_node@U?$pair@$$CBV?$basic_string@DU?$char_traits@D@std@@V?$allocator@D@2@@std@@H@std@@PEAX@std@@@std@@@std@@QEAA@AEAV?$allocator@U?$_Tree_node@U?$pair@$$CBV?$basic_string@DU?$char_traits@D@std@@V?$allocator@D@2@@std@@H@std@@PEAX@std@@@1@@Z
	??0?$_Tree_temp_node_alloc@V?$allocator@U?$_Tree_node@U?$pair@$$CBV?$basic_string@DU?$char_traits@D@std@@V?$allocator@D@2@@std@@PEAUggml_tensor@@@std@@PEAX@std@@@std@@@std@@QEAA@AEAV?$allocator@U?$_Tree_node@U?$pair@$$CBV?$basic_string@DU?$char_traits@D@std@@V?$allocator@D@2@@std@@PEAUggml_tensor@@@std@@PEAX@std@@@1@@Z
	??0?$_Tree_temp_node_alloc@V?$allocator@U?$_Tree_node@U?$pair@$$CBW4parakeet_tensor@@PEBD@std@@PEAX@std@@@std@@@std@@QEAA@AEAV?$allocator@U?$_Tree_node@U?$pair@$$CBW4parakeet_tensor@@PEBD@std@@PEAX@std@@@1@@Z
	??0?$_Tree_temp_node_alloc@V?$allocator@U?$_Tree_node@U?$pair@$$CBW4parakeet_tensor@@W4ggml_op@@@std@@PEAX@std@@@std@@@std@@QEAA@AEAV?$allocator@U?$_Tree_node@U?$pair@$$CBW4parakeet_tensor@@W4ggml_op@@@std@@PEAX@std@@@1@@Z
	??0?$_Tree_temp_node_alloc@V?$allocator@U?$_Tree_node@U?$pair@QEAUggml_backend_buffer_type@@PEAUggml_context@@@std@@PEAX@std@@@std@@@std@@QEAA@AEAV?$allocator@U?$_Tree_node@U?$pair@QEAUggml_backend_buffer_type@@PEAUggml_context@@@std@@PEAX@std@@@1@@Z
	??0?$_Tree_unchecked_const_iterator@V?$_Tree_val@U?$_Tree_simple_types@U?$pair@$$CBV?$basic_string@DU?$char_traits@D@std@@V?$allocator@D@2@@std@@H@std@@@std@@@std@@U_Iterator_base0@2@@std@@QEAA@PEAU?$_Tree_node@U?$pair@$$CBV?$basic_string@DU?$char_traits@D@std@@V?$allocator@D@2@@std@@H@std@@PEAX@1@PEBV?$_Tree_val@U?$_Tree_simple_types@U?$pair@$$CBV?$basic_string@DU?$char_traits@D@std@@V?$allocator@D@2@@std@@H@std@@@std@@@1@@Z
	??0?$_Tree_unchecked_const_iterator@V?$_Tree_val@U?$_Tree_simple_types@U?$pair@$$CBV?$basic_string@DU?$char_traits@D@std@@V?$allocator@D@2@@std@@PEAUggml_tensor@@@std@@@std@@@std@@U_Iterator_base0@2@@std@@QEAA@PEAU?$_Tree_node@U?$pair@$$CBV?$basic_string@DU?$char_traits@D@std@@V?$allocator@D@2@@std@@PEAUggml_tensor@@@std@@PEAX@1@PEBV?$_Tree_val@U?$_Tree_simple_types@U?$pair@$$CBV?$basic_string@DU?$char_traits@D@std@@V?$allocator@D@2@@std@@PEAUggml_tensor@@@std@@@std@@@1@@Z
	??0?$_Tree_unchecked_const_iterator@V?$_Tree_val@U?$_Tree_simple_types@U?$pair@$$CBW4parakeet_tensor@@PEBD@std@@@std@@@std@@U_Iterator_base0@2@@std@@QEAA@PEAU?$_Tree_node@U?$pair@$$CBW4parakeet_tensor@@PEBD@std@@PEAX@1@PEBV?$_Tree_val@U?$_Tree_simple_types@U?$pair@$$CBW4parakeet_tensor@@PEBD@std@@@std@@@1@@Z
	??0?$_Tree_unchecked_const_iterator@V?$_Tree_val@U?$_Tree_simple_types@U?$pair@$$CBW4parakeet_tensor@@W4ggml_op@@@std@@@std@@@std@@U_Iterator_base0@2@@std@@QEAA@PEAU?$_Tree_node@U?$pair@$$CBW4parakeet_tensor@@W4ggml_op@@@std@@PEAX@1@PEBV?$_Tree_val@U?$_Tree_simple_types@U?$pair@$$CBW4parakeet_tensor@@W4ggml_op@@@std@@@std@@@1@@Z
	??0?$_Tree_unchecked_const_iterator@V?$_Tree_val@U?$_Tree_simple_types@U?$pair@QEAUggml_backend_buffer_type@@PEAUggml_context@@@std@@@std@@@std@@U_Iterator_base0@2@@std@@QEAA@PEAU?$_Tree_node@U?$pair@QEAUggml_backend_buffer_type@@PEAUggml_context@@@std@@PEAX@1@PEBV?$_Tree_val@U?$_Tree_simple_types@U?$pair@QEAUggml_backend_buffer_type@@PEAUggml_context@@@std@@@std@@@1@@Z
	??0?$_Tree_unchecked_iterator@V?$_Tree_val@U?$_Tree_simple_types@U?$pair@QEAUggml_backend_buffer_type@@PEAUggml_context@@@std@@@std@@@std@@@std@@QEAA@PEAU?$_Tree_node@U?$pair@QEAUggml_backend_buffer_type@@PEAUggml_context@@@std@@PEAX@1@PEBV?$_Tree_val@U?$_Tree_simple_types@U?$pair@QEAUggml_backend_buffer_type@@PEAUggml_context@@@std@@@std@@@1@@Z
	??0?$_Tree_val@U?$_Tree_simple_types@U?$pair@$$CBHV?$basic_string@DU?$char_traits@D@std@@V?$allocator@D@2@@std@@@std@@@std@@@std@@QEAA@XZ
	??0?$_Tree_val@U?$_Tree_simple_types@U?$pair@$$CBV?$basic_string@DU?$char_traits@D@std@@V?$allocator@D@2@@std@@H@std@@@std@@@std@@QEAA@XZ
	??0?$_Tree_val@U?$_Tree_simple_types@U?$pair@$$CBV?$basic_string@DU?$char_traits@D@std@@V?$allocator@D@2@@std@@PEAUggml_tensor@@@std@@@std@@@std@@QEAA@XZ
	??0?$_Tree_val@U?$_Tree_simple_types@U?$pair@$$CBW4parakeet_tensor@@PEBD@std@@@std@@@std@@QEAA@XZ
	??0?$_Tree_val@U?$_Tree_simple_types@U?$pair@$$CBW4parakeet_tensor@@W4ggml_op@@@std@@@std@@@std@@QEAA@XZ
	??0?$_Tree_val@U?$_Tree_simple_types@U?$pair@QEAUggml_backend_buffer_type@@PEAUggml_context@@@std@@@std@@@std@@QEAA@XZ
	??0?$_Uninitialized_backout_al@V?$allocator@D@std@@@std@@QEAA@PEADAEAV?$allocator@D@1@@Z
	??0?$_Uninitialized_backout_al@V?$allocator@E@std@@@std@@QEAA@PEAEAEAV?$allocator@E@1@@Z
	??0?$_Uninitialized_backout_al@V?$allocator@H@std@@@std@@QEAA@PEAHAEAV?$allocator@H@1@@Z
	??0?$_Uninitialized_backout_al@V?$allocator@I@std@@@std@@QEAA@PEAIAEAV?$allocator@I@1@@Z
	??0?$_Uninitialized_backout_al@V?$allocator@M@std@@@std@@QEAA@PEAMAEAV?$allocator@M@1@@Z
	??0?$_Uninitialized_backout_al@V?$allocator@PEAUggml_backend@@@std@@@std@@QEAA@PEAPEAUggml_backend@@AEAV?$allocator@PEAUggml_backend@@@1@@Z
	??0?$_Uninitialized_backout_al@V?$allocator@PEAUggml_backend_buffer@@@std@@@std@@QEAA@PEAPEAUggml_backend_buffer@@AEAV?$allocator@PEAUggml_backend_buffer@@@1@@Z
	??0?$_Uninitialized_backout_al@V?$allocator@PEAUggml_context@@@std@@@std@@QEAA@PEAPEAUggml_context@@AEAV?$allocator@PEAUggml_context@@@1@@Z
	??0?$_Uninitialized_backout_al@V?$allocator@U?$pair@PEAUggml_backend_device@@PEAUggml_backend_buffer_type@@@std@@@std@@@std@@QEAA@PEAU?$pair@PEAUggml_backend_device@@PEAUggml_backend_buffer_type@@@1@AEAV?$allocator@U?$pair@PEAUggml_backend_device@@PEAUggml_backend_buffer_type@@@std@@@1@@Z
	??0?$_Uninitialized_backout_al@V?$allocator@Uparakeet_layer_encoder@@@std@@@std@@QEAA@PEAUparakeet_layer_encoder@@AEAV?$allocator@Uparakeet_layer_encoder@@@1@@Z
	??0?$_Uninitialized_backout_al@V?$allocator@Uparakeet_lsmt_layer@@@std@@@std@@QEAA@PEAUparakeet_lsmt_layer@@AEAV?$allocator@Uparakeet_lsmt_layer@@@1@@Z
	??0?$_Uninitialized_backout_al@V?$allocator@Uparakeet_lstm_state_layer@@@std@@@std@@QEAA@PEAUparakeet_lstm_state_layer@@AEAV?$allocator@Uparakeet_lstm_state_layer@@@1@@Z
	??0?$_Uninitialized_backout_al@V?$allocator@Uparakeet_segment@@@std@@@std@@QEAA@PEAUparakeet_segment@@AEAV?$allocator@Uparakeet_segment@@@1@@Z
	??0?$_Uninitialized_backout_al@V?$allocator@Uparakeet_token_data@@@std@@@std@@QEAA@PEAUparakeet_token_data@@AEAV?$allocator@Uparakeet_token_data@@@1@@Z
	??0?$_Uninitialized_backout_al@V?$allocator@Vthread@std@@@std@@@std@@QEAA@PEAVthread@1@AEAV?$allocator@Vthread@std@@@1@@Z
	??0?$_Vector_const_iterator@V?$_Vector_val@U?$_Simple_types@M@std@@@std@@@std@@QEAA@PEAMPEBU_Container_base0@1@@Z
	??0?$_Vector_iterator@V?$_Vector_val@U?$_Simple_types@M@std@@@std@@@std@@QEAA@PEAMPEBU_Container_base0@1@@Z
	??0?$_Vector_val@U?$_Simple_types@D@std@@@std@@QEAA@XZ
	??0?$_Vector_val@U?$_Simple_types@E@std@@@std@@QEAA@XZ
	??0?$_Vector_val@U?$_Simple_types@H@std@@@std@@QEAA@PEAH00@Z
	??0?$_Vector_val@U?$_Simple_types@H@std@@@std@@QEAA@XZ
	??0?$_Vector_val@U?$_Simple_types@I@std@@@std@@QEAA@XZ
	??0?$_Vector_val@U?$_Simple_types@M@std@@@std@@QEAA@XZ
	??0?$_Vector_val@U?$_Simple_types@PEAUggml_backend@@@std@@@std@@QEAA@PEAPEAUggml_backend@@00@Z
	??0?$_Vector_val@U?$_Simple_types@PEAUggml_backend@@@std@@@std@@QEAA@XZ
	??0?$_Vector_val@U?$_Simple_types@PEAUggml_backend_buffer@@@std@@@std@@QEAA@XZ
	??0?$_Vector_val@U?$_Simple_types@PEAUggml_context@@@std@@@std@@QEAA@XZ
	??0?$_Vector_val@U?$_Simple_types@U?$pair@PEAUggml_backend_device@@PEAUggml_backend_buffer_type@@@std@@@std@@@std@@QEAA@PEAU?$pair@PEAUggml_backend_device@@PEAUggml_backend_buffer_type@@@1@00@Z
	??0?$_Vector_val@U?$_Simple_types@U?$pair@PEAUggml_backend_device@@PEAUggml_backend_buffer_type@@@std@@@std@@@std@@QEAA@XZ
	??0?$_Vector_val@U?$_Simple_types@Uparakeet_layer_encoder@@@std@@@std@@QEAA@XZ
	??0?$_Vector_val@U?$_Simple_types@Uparakeet_lsmt_layer@@@std@@@std@@QEAA@XZ
	??0?$_Vector_val@U?$_Simple_types@Uparakeet_lstm_state_layer@@@std@@@std@@QEAA@XZ
	??0?$_Vector_val@U?$_Simple_types@Uparakeet_segment@@@std@@@std@@QEAA@XZ
	??0?$_Vector_val@U?$_Simple_types@Uparakeet_token_data@@@std@@@std@@QEAA@PEAUparakeet_token_data@@00@Z
	??0?$_Vector_val@U?$_Simple_types@Uparakeet_token_data@@@std@@@std@@QEAA@XZ
	??0?$_Vector_val@U?$_Simple_types@Vthread@std@@@std@@@std@@QEAA@XZ
	??0?$allocator@D@std@@QEAA@XZ
	??0?$allocator@E@std@@QEAA@XZ
	??0?$allocator@H@std@@QEAA@XZ
	??0?$allocator@I@std@@QEAA@XZ
	??0?$allocator@M@std@@QEAA@XZ
	??0?$allocator@PEAUggml_backend@@@std@@QEAA@XZ
	??0?$allocator@PEAUggml_backend_buffer@@@std@@QEAA@XZ
	??0?$allocator@PEAUggml_context@@@std@@QEAA@XZ
	??0?$allocator@U?$_Tree_node@U?$pair@$$CBHV?$basic_string@DU?$char_traits@D@std@@V?$allocator@D@2@@std@@@std@@PEAX@std@@@std@@QEAA@XZ
	??0?$allocator@U?$_Tree_node@U?$pair@$$CBV?$basic_string@DU?$char_traits@D@std@@V?$allocator@D@2@@std@@H@std@@PEAX@std@@@std@@QEAA@XZ
	??0?$allocator@U?$_Tree_node@U?$pair@$$CBV?$basic_string@DU?$char_traits@D@std@@V?$allocator@D@2@@std@@PEAUggml_tensor@@@std@@PEAX@std@@@std@@QEAA@XZ
	??0?$allocator@U?$_Tree_node@U?$pair@$$CBW4parakeet_tensor@@PEBD@std@@PEAX@std@@@std@@QEAA@XZ
	??0?$allocator@U?$_Tree_node@U?$pair@$$CBW4parakeet_tensor@@W4ggml_op@@@std@@PEAX@std@@@std@@QEAA@XZ
	??0?$allocator@U?$_Tree_node@U?$pair@QEAUggml_backend_buffer_type@@PEAUggml_context@@@std@@PEAX@std@@@std@@QEAA@XZ
	??0?$allocator@U?$pair@PEAUggml_backend_device@@PEAUggml_backend_buffer_type@@@std@@@std@@QEAA@XZ
	??0?$allocator@Uparakeet_layer_encoder@@@std@@QEAA@XZ
	??0?$allocator@Uparakeet_lsmt_layer@@@std@@QEAA@XZ
	??0?$allocator@Uparakeet_lstm_state_layer@@@std@@QEAA@XZ
	??0?$allocator@Uparakeet_segment@@@std@@QEAA@XZ
	??0?$allocator@Uparakeet_token_data@@@std@@QEAA@XZ
	??0?$allocator@Vthread@std@@@std@@QEAA@XZ
	??0?$allocator@_W@std@@QEAA@XZ
	??0?$basic_filebuf@DU?$char_traits@D@std@@@std@@QEAA@XZ
	??0?$basic_ifstream@DU?$char_traits@D@std@@@std@@QEAA@AEBV?$basic_string@_WU?$char_traits@_W@std@@V?$allocator@_W@2@@1@HH@Z
	??0?$basic_ifstream@DU?$char_traits@D@std@@@std@@QEAA@PEB_WHH@Z
	??0?$basic_ofstream@DU?$char_traits@D@std@@@std@@QEAA@PEBDHH@Z
	??0?$basic_string@DU?$char_traits@D@std@@V?$allocator@D@2@@std@@QEAA@$$QEAV01@@Z
	??0?$basic_string@DU?$char_traits@D@std@@V?$allocator@D@2@@std@@QEAA@AEBV01@@Z
	??0?$basic_string@DU?$char_traits@D@std@@V?$allocator@D@2@@std@@QEAA@AEBV01@_K1AEBV?$allocator@D@1@@Z
	??0?$basic_string@DU?$char_traits@D@std@@V?$allocator@D@2@@std@@QEAA@QEBD@Z
	??0?$basic_string@DU?$char_traits@D@std@@V?$allocator@D@2@@std@@QEAA@QEBD_K@Z
	??0?$basic_string@DU?$char_traits@D@std@@V?$allocator@D@2@@std@@QEAA@XZ
	??0?$basic_string@_WU?$char_traits@_W@std@@V?$allocator@_W@2@@std@@QEAA@$$QEAV01@@Z
	??0?$basic_string@_WU?$char_traits@_W@std@@V?$allocator@_W@2@@std@@QEAA@AEBV01@@Z
	??0?$basic_string@_WU?$char_traits@_W@std@@V?$allocator@_W@2@@std@@QEAA@XZ
	??0?$codecvt_utf8@_W$0BAPPPP@$0A@@std@@QEAA@_K@Z
	??0?$fpos@U_Mbstatet@@@std@@QEAA@U_Mbstatet@@_J@Z
	??0?$fpos@U_Mbstatet@@@std@@QEAA@_J@Z
	??0?$initializer_list@H@std@@QEAA@PEBH0@Z
	??0?$initializer_list@U?$pair@$$CBW4parakeet_tensor@@PEBD@std@@@std@@QEAA@PEBU?$pair@$$CBW4parakeet_tensor@@PEBD@1@0@Z
	??0?$initializer_list@U?$pair@$$CBW4parakeet_tensor@@W4ggml_op@@@std@@@std@@QEAA@PEBU?$pair@$$CBW4parakeet_tensor@@W4ggml_op@@@1@0@Z
	??0?$map@HV?$basic_string@DU?$char_traits@D@std@@V?$allocator@D@2@@std@@U?$less@H@2@V?$allocator@U?$pair@$$CBHV?$basic_string@DU?$char_traits@D@std@@V?$allocator@D@2@@std@@@std@@@2@@std@@QEAA@XZ
	??0?$map@PEAUggml_backend_buffer_type@@PEAUggml_context@@U?$less@PEAUggml_backend_buffer_type@@@std@@V?$allocator@U?$pair@QEAUggml_backend_buffer_type@@PEAUggml_context@@@std@@@4@@std@@QEAA@XZ
	??0?$map@V?$basic_string@DU?$char_traits@D@std@@V?$allocator@D@2@@std@@HU?$less@V?$basic_string@DU?$char_traits@D@std@@V?$allocator@D@2@@std@@@2@V?$allocator@U?$pair@$$CBV?$basic_string@DU?$char_traits@D@std@@V?$allocator@D@2@@std@@H@std@@@2@@std@@QEAA@XZ
	??0?$map@V?$basic_string@DU?$char_traits@D@std@@V?$allocator@D@2@@std@@PEAUggml_tensor@@U?$less@V?$basic_string@DU?$char_traits@D@std@@V?$allocator@D@2@@std@@@2@V?$allocator@U?$pair@$$CBV?$basic_string@DU?$char_traits@D@std@@V?$allocator@D@2@@std@@PEAUggml_tensor@@@std@@@2@@std@@QEAA@XZ
	??0?$map@W4parakeet_tensor@@PEBDU?$less@W4parakeet_tensor@@@std@@V?$allocator@U?$pair@$$CBW4parakeet_tensor@@PEBD@std@@@3@@std@@QEAA@V?$initializer_list@U?$pair@$$CBW4parakeet_tensor@@PEBD@std@@@1@@Z
	??0?$map@W4parakeet_tensor@@W4ggml_op@@U?$less@W4parakeet_tensor@@@std@@V?$allocator@U?$pair@$$CBW4parakeet_tensor@@W4ggml_op@@@std@@@4@@std@@QEAA@V?$initializer_list@U?$pair@$$CBW4parakeet_tensor@@W4ggml_op@@@std@@@1@@Z
	??0?$tuple@$$QEAV?$basic_string@DU?$char_traits@D@std@@V?$allocator@D@2@@std@@@std@@QEAA@$$QEAV01@@Z
	??0?$tuple@$$V@std@@QEAA@AEBV01@@Z
	??0?$tuple@AEBH@std@@QEAA@$$QEAV01@@Z
	??0?$tuple@AEBQEAUggml_backend_buffer_type@@@std@@QEAA@$$QEAV01@@Z
	??0?$tuple@AEBV?$basic_string@DU?$char_traits@D@std@@V?$allocator@D@2@@std@@@std@@QEAA@$$QEAV01@@Z
	??0?$vector@DV?$allocator@D@std@@@std@@QEAA@XZ
	??0?$vector@DV?$allocator@D@std@@@std@@QEAA@_KAEBV?$allocator@D@1@@Z
	??0?$vector@EV?$allocator@E@std@@@std@@QEAA@XZ
	??0?$vector@HV?$allocator@H@std@@@std@@QEAA@$$QEAV01@@Z
	??0?$vector@HV?$allocator@H@std@@@std@@QEAA@XZ
	??0?$vector@IV?$allocator@I@std@@@std@@QEAA@XZ
	??0?$vector@MV?$allocator@M@std@@@std@@QEAA@XZ
	??0?$vector@MV?$allocator@M@std@@@std@@QEAA@_KAEBMAEBV?$allocator@M@1@@Z
	??0?$vector@MV?$allocator@M@std@@@std@@QEAA@_KAEBV?$allocator@M@1@@Z
	??0?$vector@PEAUggml_backend@@V?$allocator@PEAUggml_backend@@@std@@@std@@QEAA@$$QEAV01@@Z
	??0?$vector@PEAUggml_backend@@V?$allocator@PEAUggml_backend@@@std@@@std@@QEAA@AEBV01@@Z
	??0?$vector@PEAUggml_backend@@V?$allocator@PEAUggml_backend@@@std@@@std@@QEAA@XZ
	??0?$vector@PEAUggml_backend_buffer@@V?$allocator@PEAUggml_backend_buffer@@@std@@@std@@QEAA@XZ
	??0?$vector@PEAUggml_context@@V?$allocator@PEAUggml_context@@@std@@@std@@QEAA@XZ
	??0?$vector@U?$pair@PEAUggml_backend_device@@PEAUggml_backend_buffer_type@@@std@@V?$allocator@U?$pair@PEAUggml_backend_device@@PEAUggml_backend_buffer_type@@@std@@@2@@std@@QEAA@$$QEAV01@@Z
	??0?$vector@U?$pair@PEAUggml_backend_device@@PEAUggml_backend_buffer_type@@@std@@V?$allocator@U?$pair@PEAUggml_backend_device@@PEAUggml_backend_buffer_type@@@std@@@2@@std@@QEAA@AEBV01@@Z
	??0?$vector@U?$pair@PEAUggml_backend_device@@PEAUggml_backend_buffer_type@@@std@@V?$allocator@U?$pair@PEAUggml_backend_device@@PEAUggml_backend_buffer_type@@@std@@@2@@std@@QEAA@XZ
	??0?$vector@Uparakeet_layer_encoder@@V?$allocator@Uparakeet_layer_encoder@@@std@@@std@@QEAA@XZ
	??0?$vector@Uparakeet_lsmt_layer@@V?$allocator@Uparakeet_lsmt_layer@@@std@@@std@@QEAA@XZ
	??0?$vector@Uparakeet_lstm_state_layer@@V?$allocator@Uparakeet_lstm_state_layer@@@std@@@std@@QEAA@XZ
	??0?$vector@Uparakeet_segment@@V?$allocator@Uparakeet_segment@@@std@@@std@@QEAA@XZ
	??0?$vector@Uparakeet_token_data@@V?$allocator@Uparakeet_token_data@@@std@@@std@@QEAA@$$QEAV01@@Z
	??0?$vector@Uparakeet_token_data@@V?$allocator@Uparakeet_token_data@@@std@@@std@@QEAA@XZ
	??0?$vector@Vthread@std@@V?$allocator@Vthread@std@@@2@@std@@QEAA@_KAEBV?$allocator@Vthread@std@@@1@@Z
	??0?$wstring_convert@V?$codecvt_utf8@_W$0BAPPPP@$0A@@std@@_WV?$allocator@_W@2@V?$allocator@D@2@@std@@QEAA@XZ
	??0_Bxty@?$_String_val@U?$_Simple_types@D@std@@@std@@QEAA@XZ
	??0_Bxty@?$_String_val@U?$_Simple_types@_W@std@@@std@@QEAA@XZ
	??0_Fake_proxy_ptr_impl@std@@QEAA@AEBU_Fake_allocator@1@AEBU_Container_base0@1@@Z
	??0_Sentry_base@?$basic_ostream@DU?$char_traits@D@std@@@std@@QEAA@AEAV12@@Z
	??0bad_alloc@std@@AEAA@QEBD@Z
	??0bad_alloc@std@@QEAA@AEBV01@@Z
	??0bad_array_new_length@std@@QEAA@AEBV01@@Z
	??0bad_array_new_length@std@@QEAA@XZ
	??0bad_cast@std@@QEAA@AEBV01@@Z
	??0bad_cast@std@@QEAA@XZ
	??0exception@std@@QEAA@AEBV01@@Z
	??0exception@std@@QEAA@QEBD@Z
	??0exception@std@@QEAA@QEBDH@Z
	??0locale@std@@QEAA@XZ
	??0parakeet_context@@QEAA@XZ
	??0parakeet_filters@@QEAA@XZ
	??0parakeet_hparams@@QEAA@XZ
	??0parakeet_joint_network@@QEAA@XZ
	??0parakeet_layer_encoder@@QEAA@XZ
	??0parakeet_lsmt_layer@@QEAA@XZ
	??0parakeet_lstm_state@@QEAA@XZ
	??0parakeet_lstm_state_layer@@QEAA@XZ
	??0parakeet_mel@@QEAA@XZ
	??0parakeet_mel_cache@@QEAA@XZ
	??0parakeet_model@@QEAA@XZ
	??0parakeet_prediction_network@@QEAA@XZ
	??0parakeet_sched@@QEAA@XZ
	??0parakeet_segment@@QEAA@$$QEAU0@@Z
	??0parakeet_segment@@QEAA@XZ
	??0parakeet_state@@QEAA@XZ
	??0parakeet_vocab@@QEAA@XZ
	??0range_error@std@@QEAA@AEBV01@@Z
	??0range_error@std@@QEAA@PEBD@Z
	??0runtime_error@std@@QEAA@AEBV01@@Z
	??0runtime_error@std@@QEAA@AEBV?$basic_string@DU?$char_traits@D@std@@V?$allocator@D@2@@1@@Z
	??0runtime_error@std@@QEAA@PEBD@Z
	??0sentry@?$basic_ostream@DU?$char_traits@D@std@@@std@@QEAA@AEAV12@@Z
	??0thread@std@@QEAA@XZ
	??1?$_Alloc_construct_ptr@V?$allocator@U?$_Tree_node@U?$pair@$$CBHV?$basic_string@DU?$char_traits@D@std@@V?$allocator@D@2@@std@@@std@@PEAX@std@@@std@@@std@@QEAA@XZ
	??1?$_Alloc_construct_ptr@V?$allocator@U?$_Tree_node@U?$pair@$$CBV?$basic_string@DU?$char_traits@D@std@@V?$allocator@D@2@@std@@H@std@@PEAX@std@@@std@@@std@@QEAA@XZ
	??1?$_Alloc_construct_ptr@V?$allocator@U?$_Tree_node@U?$pair@$$CBV?$basic_string@DU?$char_traits@D@std@@V?$allocator@D@2@@std@@PEAUggml_tensor@@@std@@PEAX@std@@@std@@@std@@QEAA@XZ
	??1?$_Alloc_construct_ptr@V?$allocator@U?$_Tree_node@U?$pair@$$CBW4parakeet_tensor@@PEBD@std@@PEAX@std@@@std@@@std@@QEAA@XZ
	??1?$_Alloc_construct_ptr@V?$allocator@U?$_Tree_node@U?$pair@$$CBW4parakeet_tensor@@W4ggml_op@@@std@@PEAX@std@@@std@@@std@@QEAA@XZ
	??1?$_Alloc_construct_ptr@V?$allocator@U?$_Tree_node@U?$pair@QEAUggml_backend_buffer_type@@PEAUggml_context@@@std@@PEAX@std@@@std@@@std@@QEAA@XZ
	??1?$_Compressed_pair@V?$allocator@D@std@@V?$_String_val@U?$_Simple_types@D@std@@@2@$00@std@@QEAA@XZ
	??1?$_Compressed_pair@V?$allocator@_W@std@@V?$_String_val@U?$_Simple_types@_W@std@@@2@$00@std@@QEAA@XZ
	??1?$_Func_class@PEAUggml_cgraph@@$$V@std@@QEAA@XZ
	??1?$_String_val@U?$_Simple_types@D@std@@@std@@QEAA@XZ
	??1?$_String_val@U?$_Simple_types@_W@std@@@std@@QEAA@XZ
	??1?$_Tidy_guard@V?$vector@DV?$allocator@D@std@@@std@@@std@@QEAA@XZ
	??1?$_Tidy_guard@V?$vector@MV?$allocator@M@std@@@std@@@std@@QEAA@XZ
	??1?$_Tidy_guard@V?$vector@PEAUggml_backend@@V?$allocator@PEAUggml_backend@@@std@@@std@@@std@@QEAA@XZ
	??1?$_Tidy_guard@V?$vector@U?$pair@PEAUggml_backend_device@@PEAUggml_backend_buffer_type@@@std@@V?$allocator@U?$pair@PEAUggml_backend_device@@PEAUggml_backend_buffer_type@@@std@@@2@@std@@@std@@QEAA@XZ
	??1?$_Tidy_guard@V?$vector@Vthread@std@@V?$allocator@Vthread@std@@@2@@std@@@std@@QEAA@XZ
	??1?$_Tree@V?$_Tmap_traits@HV?$basic_string@DU?$char_traits@D@std@@V?$allocator@D@2@@std@@U?$less@H@2@V?$allocator@U?$pair@$$CBHV?$basic_string@DU?$char_traits@D@std@@V?$allocator@D@2@@std@@@std@@@2@$0A@@std@@@std@@QEAA@XZ
	??1?$_Tree@V?$_Tmap_traits@PEAUggml_backend_buffer_type@@PEAUggml_context@@U?$less@PEAUggml_backend_buffer_type@@@std@@V?$allocator@U?$pair@QEAUggml_backend_buffer_type@@PEAUggml_context@@@std@@@4@$0A@@std@@@std@@QEAA@XZ
	??1?$_Tree@V?$_Tmap_traits@V?$basic_string@DU?$char_traits@D@std@@V?$allocator@D@2@@std@@HU?$less@V?$basic_string@DU?$char_traits@D@std@@V?$allocator@D@2@@std@@@2@V?$allocator@U?$pair@$$CBV?$basic_string@DU?$char_traits@D@std@@V?$allocator@D@2@@std@@H@std@@@2@$0A@@std@@@std@@QEAA@XZ
	??1?$_Tree@V?$_Tmap_traits@V?$basic_string@DU?$char_traits@D@std@@V?$allocator@D@2@@std@@PEAUggml_tensor@@U?$less@V?$basic_string@DU?$char_traits@D@std@@V?$allocator@D@2@@std@@@2@V?$allocator@U?$pair@$$CBV?$basic_string@DU?$char_traits@D@std@@V?$allocator@D@2@@std@@PEAUggml_tensor@@@std@@@2@$0A@@std@@@std@@QEAA@XZ
	??1?$_Tree@V?$_Tmap_traits@W4parakeet_tensor@@PEBDU?$less@W4parakeet_tensor@@@std@@V?$allocator@U?$pair@$$CBW4parakeet_tensor@@PEBD@std@@@3@$0A@@std@@@std@@QEAA@XZ
	??1?$_Tree@V?$_Tmap_traits@W4parakeet_tensor@@W4ggml_op@@U?$less@W4parakeet_tensor@@@std@@V?$allocator@U?$pair@$$CBW4parakeet_tensor@@W4ggml_op@@@std@@@4@$0A@@std@@@std@@QEAA@XZ
	??1?$_Tree_temp_node@V?$allocator@U?$_Tree_node@U?$pair@$$CBHV?$basic_string@DU?$char_traits@D@std@@V?$allocator@D@2@@std@@@std@@PEAX@std@@@std@@@std@@QEAA@XZ
	??1?$_Tree_temp_node@V?$allocator@U?$_Tree_node@U?$pair@$$CBV?$basic_string@DU?$char_traits@D@std@@V?$allocator@D@2@@std@@H@std@@PEAX@std@@@std@@@std@@QEAA@XZ
	??1?$_Tree_temp_node@V?$allocator@U?$_Tree_node@U?$pair@$$CBV?$basic_string@DU?$char_traits@D@std@@V?$allocator@D@2@@std@@PEAUggml_tensor@@@std@@PEAX@std@@@std@@@std@@QEAA@XZ
	??1?$_Tree_temp_node@V?$allocator@U?$_Tree_node@U?$pair@$$CBW4parakeet_tensor@@PEBD@std@@PEAX@std@@@std@@@std@@QEAA@XZ
	??1?$_Tree_temp_node@V?$allocator@U?$_Tree_node@U?$pair@$$CBW4parakeet_tensor@@W4ggml_op@@@std@@PEAX@std@@@std@@@std@@QEAA@XZ
	??1?$_Tree_temp_node@V?$allocator@U?$_Tree_node@U?$pair@QEAUggml_backend_buffer_type@@PEAUggml_context@@@std@@PEAX@std@@@std@@@std@@QEAA@XZ
	??1?$_Tree_temp_node_alloc@V?$allocator@U?$_Tree_node@U?$pair@$$CBHV?$basic_string@DU?$char_traits@D@std@@V?$allocator@D@2@@std@@@std@@PEAX@std@@@std@@@std@@QEAA@XZ
	??1?$_Tree_temp_node_alloc@V?$allocator@U?$_Tree_node@U?$pair@$$CBV?$basic_string@DU?$char_traits@D@std@@V?$allocator@D@2@@std@@H@std@@PEAX@std@@@std@@@std@@QEAA@XZ
	??1?$_Tree_temp_node_alloc@V?$allocator@U?$_Tree_node@U?$pair@$$CBV?$basic_string@DU?$char_traits@D@std@@V?$allocator@D@2@@std@@PEAUggml_tensor@@@std@@PEAX@std@@@std@@@std@@QEAA@XZ
	??1?$_Tree_temp_node_alloc@V?$allocator@U?$_Tree_node@U?$pair@$$CBW4parakeet_tensor@@PEBD@std@@PEAX@std@@@std@@@std@@QEAA@XZ
	??1?$_Tree_temp_node_alloc@V?$allocator@U?$_Tree_node@U?$pair@$$CBW4parakeet_tensor@@W4ggml_op@@@std@@PEAX@std@@@std@@@std@@QEAA@XZ
	??1?$_Tree_temp_node_alloc@V?$allocator@U?$_Tree_node@U?$pair@QEAUggml_backend_buffer_type@@PEAUggml_context@@@std@@PEAX@std@@@std@@@std@@QEAA@XZ
	??1?$_Uninitialized_backout_al@V?$allocator@D@std@@@std@@QEAA@XZ
	??1?$_Uninitialized_backout_al@V?$allocator@E@std@@@std@@QEAA@XZ
	??1?$_Uninitialized_backout_al@V?$allocator@H@std@@@std@@QEAA@XZ
	??1?$_Uninitialized_backout_al@V?$allocator@I@std@@@std@@QEAA@XZ
	??1?$_Uninitialized_backout_al@V?$allocator@M@std@@@std@@QEAA@XZ
	??1?$_Uninitialized_backout_al@V?$allocator@PEAUggml_backend@@@std@@@std@@QEAA@XZ
	??1?$_Uninitialized_backout_al@V?$allocator@PEAUggml_backend_buffer@@@std@@@std@@QEAA@XZ
	??1?$_Uninitialized_backout_al@V?$allocator@PEAUggml_context@@@std@@@std@@QEAA@XZ
	??1?$_Uninitialized_backout_al@V?$allocator@U?$pair@PEAUggml_backend_device@@PEAUggml_backend_buffer_type@@@std@@@std@@@std@@QEAA@XZ
	??1?$_Uninitialized_backout_al@V?$allocator@Uparakeet_layer_encoder@@@std@@@std@@QEAA@XZ
	??1?$_Uninitialized_backout_al@V?$allocator@Uparakeet_lsmt_layer@@@std@@@std@@QEAA@XZ
	??1?$_Uninitialized_backout_al@V?$allocator@Uparakeet_lstm_state_layer@@@std@@@std@@QEAA@XZ
	??1?$_Uninitialized_backout_al@V?$allocator@Uparakeet_segment@@@std@@@std@@QEAA@XZ
	??1?$_Uninitialized_backout_al@V?$allocator@Uparakeet_token_data@@@std@@@std@@QEAA@XZ
	??1?$_Uninitialized_backout_al@V?$allocator@Vthread@std@@@std@@@std@@QEAA@XZ
	??1?$basic_filebuf@DU?$char_traits@D@std@@@std@@UEAA@XZ
	??1?$basic_ifstream@DU?$char_traits@D@std@@@std@@UEAA@XZ
	??1?$basic_ofstream@DU?$char_traits@D@std@@@std@@UEAA@XZ
	??1?$basic_string@DU?$char_traits@D@std@@V?$allocator@D@2@@std@@QEAA@XZ
	??1?$basic_string@_WU?$char_traits@_W@std@@V?$allocator@_W@2@@std@@QEAA@XZ
	??1?$codecvt_utf8@_W$0BAPPPP@$0A@@std@@UEAA@XZ
	??1?$function@$$A6APEAUggml_cgraph@@XZ@std@@QEAA@XZ
	??1?$map@HV?$basic_string@DU?$char_traits@D@std@@V?$allocator@D@2@@std@@U?$less@H@2@V?$allocator@U?$pair@$$CBHV?$basic_string@DU?$char_traits@D@std@@V?$allocator@D@2@@std@@@std@@@2@@std@@QEAA@XZ
	??1?$map@PEAUggml_backend_buffer_type@@PEAUggml_context@@U?$less@PEAUggml_backend_buffer_type@@@std@@V?$allocator@U?$pair@QEAUggml_backend_buffer_type@@PEAUggml_context@@@std@@@4@@std@@QEAA@XZ
	??1?$map@V?$basic_string@DU?$char_traits@D@std@@V?$allocator@D@2@@std@@HU?$less@V?$basic_string@DU?$char_traits@D@std@@V?$allocator@D@2@@std@@@2@V?$allocator@U?$pair@$$CBV?$basic_string@DU?$char_traits@D@std@@V?$allocator@D@2@@std@@H@std@@@2@@std@@QEAA@XZ
	??1?$map@V?$basic_string@DU?$char_traits@D@std@@V?$allocator@D@2@@std@@PEAUggml_tensor@@U?$less@V?$basic_string@DU?$char_traits@D@std@@V?$allocator@D@2@@std@@@2@V?$allocator@U?$pair@$$CBV?$basic_string@DU?$char_traits@D@std@@V?$allocator@D@2@@std@@PEAUggml_tensor@@@std@@@2@@std@@QEAA@XZ
	??1?$map@W4parakeet_tensor@@PEBDU?$less@W4parakeet_tensor@@@std@@V?$allocator@U?$pair@$$CBW4parakeet_tensor@@PEBD@std@@@3@@std@@QEAA@XZ
	??1?$map@W4parakeet_tensor@@W4ggml_op@@U?$less@W4parakeet_tensor@@@std@@V?$allocator@U?$pair@$$CBW4parakeet_tensor@@W4ggml_op@@@std@@@4@@std@@QEAA@XZ
	??1?$pair@$$CBHV?$basic_string@DU?$char_traits@D@std@@V?$allocator@D@2@@std@@@std@@QEAA@XZ
	??1?$pair@$$CBV?$basic_string@DU?$char_traits@D@std@@V?$allocator@D@2@@std@@H@std@@QEAA@XZ
	??1?$pair@$$CBV?$basic_string@DU?$char_traits@D@std@@V?$allocator@D@2@@std@@PEAUggml_tensor@@@std@@QEAA@XZ
	??1?$unique_ptr@Uggml_context@@Uggml_context_deleter@@@std@@QEAA@XZ
	??1?$unique_ptr@V?$tuple@P6AXUmel_worker_params@@PEBMAEBV?$vector@MV?$allocator@M@std@@@std@@AEBUparakeet_filters@@AEAUparakeet_mel@@AEBUparakeet_mel_cache@@@ZU1@PEBMV?$reference_wrapper@$$CBV?$vector@MV?$allocator@M@std@@@std@@@3@V?$reference_wrapper@$$CBUparakeet_filters@@@3@V?$reference_wrapper@Uparakeet_mel@@@3@V?$reference_wrapper@$$CBUparakeet_mel_cache@@@3@@std@@U?$default_delete@V?$tuple@P6AXUmel_worker_params@@PEBMAEBV?$vector@MV?$allocator@M@std@@@std@@AEBUparakeet_filters@@AEAUparakeet_mel@@AEBUparakeet_mel_cache@@@ZU1@PEBMV?$reference_wrapper@$$CBV?$vector@MV?$allocator@M@std@@@std@@@3@V?$reference_wrapper@$$CBUparakeet_filters@@@3@V?$reference_wrapper@Uparakeet_mel@@@3@V?$reference_wrapper@$$CBUparakeet_mel_cache@@@3@@std@@@2@@std@@QEAA@XZ
	??1?$unique_ptr@V_Facet_base@std@@U?$default_delete@V_Facet_base@std@@@2@@std@@QEAA@XZ
	??1?$vector@DV?$allocator@D@std@@@std@@QEAA@XZ
	??1?$vector@EV?$allocator@E@std@@@std@@QEAA@XZ
	??1?$vector@HV?$allocator@H@std@@@std@@QEAA@XZ
	??1?$vector@IV?$allocator@I@std@@@std@@QEAA@XZ
	??1?$vector@MV?$allocator@M@std@@@std@@QEAA@XZ
	??1?$vector@PEAUggml_backend@@V?$allocator@PEAUggml_backend@@@std@@@std@@QEAA@XZ
	??1?$vector@PEAUggml_backend_buffer@@V?$allocator@PEAUggml_backend_buffer@@@std@@@std@@QEAA@XZ
	??1?$vector@PEAUggml_context@@V?$allocator@PEAUggml_context@@@std@@@std@@QEAA@XZ
	??1?$vector@U?$pair@PEAUggml_backend_device@@PEAUggml_backend_buffer_type@@@std@@V?$allocator@U?$pair@PEAUggml_backend_device@@PEAUggml_backend_buffer_type@@@std@@@2@@std@@QEAA@XZ
	??1?$vector@Uparakeet_layer_encoder@@V?$allocator@Uparakeet_layer_encoder@@@std@@@std@@QEAA@XZ
	??1?$vector@Uparakeet_lsmt_layer@@V?$allocator@Uparakeet_lsmt_layer@@@std@@@std@@QEAA@XZ
	??1?$vector@Uparakeet_lstm_state_layer@@V?$allocator@Uparakeet_lstm_state_layer@@@std@@@std@@QEAA@XZ
	??1?$vector@Uparakeet_segment@@V?$allocator@Uparakeet_segment@@@std@@@std@@QEAA@XZ
	??1?$vector@Uparakeet_token_data@@V?$allocator@Uparakeet_token_data@@@std@@@std@@QEAA@XZ
	??1?$vector@Vthread@std@@V?$allocator@Vthread@std@@@2@@std@@QEAA@XZ
	??1?$wstring_convert@V?$codecvt_utf8@_W$0BAPPPP@$0A@@std@@_WV?$allocator@_W@2@V?$allocator@D@2@@std@@UEAA@XZ
	??1_Bxty@?$_String_val@U?$_Simple_types@D@std@@@std@@QEAA@XZ
	??1_Bxty@?$_String_val@U?$_Simple_types@_W@std@@@std@@QEAA@XZ
	??1_Reallocation_guard@?$vector@DV?$allocator@D@std@@@std@@QEAA@XZ
	??1_Reallocation_guard@?$vector@EV?$allocator@E@std@@@std@@QEAA@XZ
	??1_Reallocation_guard@?$vector@HV?$allocator@H@std@@@std@@QEAA@XZ
	??1_Reallocation_guard@?$vector@IV?$allocator@I@std@@@std@@QEAA@XZ
	??1_Reallocation_guard@?$vector@MV?$allocator@M@std@@@std@@QEAA@XZ
	??1_Reallocation_guard@?$vector@PEAUggml_backend@@V?$allocator@PEAUggml_backend@@@std@@@std@@QEAA@XZ
	??1_Reallocation_guard@?$vector@PEAUggml_backend_buffer@@V?$allocator@PEAUggml_backend_buffer@@@std@@@std@@QEAA@XZ
	??1_Reallocation_guard@?$vector@PEAUggml_context@@V?$allocator@PEAUggml_context@@@std@@@std@@QEAA@XZ
	??1_Reallocation_guard@?$vector@U?$pair@PEAUggml_backend_device@@PEAUggml_backend_buffer_type@@@std@@V?$allocator@U?$pair@PEAUggml_backend_device@@PEAUggml_backend_buffer_type@@@std@@@2@@std@@QEAA@XZ
	??1_Reallocation_guard@?$vector@Uparakeet_layer_encoder@@V?$allocator@Uparakeet_layer_encoder@@@std@@@std@@QEAA@XZ
	??1_Reallocation_guard@?$vector@Uparakeet_lsmt_layer@@V?$allocator@Uparakeet_lsmt_layer@@@std@@@std@@QEAA@XZ
	??1_Reallocation_guard@?$vector@Uparakeet_lstm_state_layer@@V?$allocator@Uparakeet_lstm_state_layer@@@std@@@std@@QEAA@XZ
	??1_Reallocation_guard@?$vector@Uparakeet_segment@@V?$allocator@Uparakeet_segment@@@std@@@std@@QEAA@XZ
	??1_Reallocation_guard@?$vector@Uparakeet_token_data@@V?$allocator@Uparakeet_token_data@@@std@@@std@@QEAA@XZ
	??1_Sentry_base@?$basic_ostream@DU?$char_traits@D@std@@@std@@QEAA@XZ
	??1_Simple_reallocation_guard@?$vector@DV?$allocator@D@std@@@std@@QEAA@XZ
	??1_Simple_reallocation_guard@?$vector@MV?$allocator@M@std@@@std@@QEAA@XZ
	??1bad_alloc@std@@UEAA@XZ
	??1bad_array_new_length@std@@UEAA@XZ
	??1bad_cast@std@@UEAA@XZ
	??1exception@std@@UEAA@XZ
	??1locale@std@@QEAA@XZ
	??1parakeet_context@@QEAA@XZ
	??1parakeet_filters@@QEAA@XZ
	??1parakeet_lstm_state@@QEAA@XZ
	??1parakeet_mel@@QEAA@XZ
	??1parakeet_mel_cache@@QEAA@XZ
	??1parakeet_model@@QEAA@XZ
	??1parakeet_prediction_network@@QEAA@XZ
	??1parakeet_sched@@QEAA@XZ
	??1parakeet_segment@@QEAA@XZ
	??1parakeet_state@@QEAA@XZ
	??1parakeet_vocab@@QEAA@XZ
	??1range_error@std@@UEAA@XZ
	??1runtime_error@std@@UEAA@XZ
	??1sentry@?$basic_ostream@DU?$char_traits@D@std@@@std@@QEAA@XZ
	??1thread@std@@QEAA@XZ
	??2@YAPEAX_KPEAX@Z
	??4?$basic_string@DU?$char_traits@D@std@@V?$allocator@D@2@@std@@QEAAAEAV01@$$QEAV01@@Z
	??4?$basic_string@DU?$char_traits@D@std@@V?$allocator@D@2@@std@@QEAAAEAV01@AEBV01@@Z
	??4?$basic_string@DU?$char_traits@D@std@@V?$allocator@D@2@@std@@QEAAAEAV01@QEBD@Z
	??4?$vector@PEAUggml_backend@@V?$allocator@PEAUggml_backend@@@std@@@std@@QEAAAEAV01@$$QEAV01@@Z
	??4?$vector@Uparakeet_token_data@@V?$allocator@Uparakeet_token_data@@@std@@@std@@QEAAAEAV01@AEBV01@@Z
	??4locale@std@@QEAAAEBV01@AEBV01@@Z
	??4thread@std@@QEAAAEAV01@$$QEAV01@@Z
	??8?$_Tree_const_iterator@V?$_Tree_val@U?$_Tree_simple_types@U?$pair@$$CBV?$basic_string@DU?$char_traits@D@std@@V?$allocator@D@2@@std@@H@std@@@std@@@std@@@std@@QEBA_NAEBV01@@Z
	??8?$_Tree_const_iterator@V?$_Tree_val@U?$_Tree_simple_types@U?$pair@$$CBV?$basic_string@DU?$char_traits@D@std@@V?$allocator@D@2@@std@@PEAUggml_tensor@@@std@@@std@@@std@@@std@@QEBA_NAEBV01@@Z
	??8?$_Tree_const_iterator@V?$_Tree_val@U?$_Tree_simple_types@U?$pair@QEAUggml_backend_buffer_type@@PEAUggml_context@@@std@@@std@@@std@@@std@@QEBA_NAEBV01@@Z
	??9?$_Tree_const_iterator@V?$_Tree_val@U?$_Tree_simple_types@U?$pair@$$CBV?$basic_string@DU?$char_traits@D@std@@V?$allocator@D@2@@std@@H@std@@@std@@@std@@@std@@QEBA_NAEBV01@@Z
	??9?$_Tree_unchecked_const_iterator@V?$_Tree_val@U?$_Tree_simple_types@U?$pair@QEAUggml_backend_buffer_type@@PEAUggml_context@@@std@@@std@@@std@@U_Iterator_base0@2@@std@@QEBA_NU_Default_sentinel@1@@Z
	??A?$basic_string@DU?$char_traits@D@std@@V?$allocator@D@2@@std@@QEAAAEAD_K@Z
	??A?$basic_string@DU?$char_traits@D@std@@V?$allocator@D@2@@std@@QEBAAEBD_K@Z
	??A?$basic_string@_WU?$char_traits@_W@std@@V?$allocator@_W@2@@std@@QEAAAEA_W_K@Z
	??A?$map@HV?$basic_string@DU?$char_traits@D@std@@V?$allocator@D@2@@std@@U?$less@H@2@V?$allocator@U?$pair@$$CBHV?$basic_string@DU?$char_traits@D@std@@V?$allocator@D@2@@std@@@std@@@2@@std@@QEAAAEAV?$basic_string@DU?$char_traits@D@std@@V?$allocator@D@2@@1@AEBH@Z
	??A?$map@PEAUggml_backend_buffer_type@@PEAUggml_context@@U?$less@PEAUggml_backend_buffer_type@@@std@@V?$allocator@U?$pair@QEAUggml_backend_buffer_type@@PEAUggml_context@@@std@@@4@@std@@QEAAAEAPEAUggml_context@@AEBQEAUggml_backend_buffer_type@@@Z
	??A?$map@V?$basic_string@DU?$char_traits@D@std@@V?$allocator@D@2@@std@@HU?$less@V?$basic_string@DU?$char_traits@D@std@@V?$allocator@D@2@@std@@@2@V?$allocator@U?$pair@$$CBV?$basic_string@DU?$char_traits@D@std@@V?$allocator@D@2@@std@@H@std@@@2@@std@@QEAAAEAH$$QEAV?$basic_string@DU?$char_traits@D@std@@V?$allocator@D@2@@1@@Z
	??A?$map@V?$basic_string@DU?$char_traits@D@std@@V?$allocator@D@2@@std@@HU?$less@V?$basic_string@DU?$char_traits@D@std@@V?$allocator@D@2@@std@@@2@V?$allocator@U?$pair@$$CBV?$basic_string@DU?$char_traits@D@std@@V?$allocator@D@2@@std@@H@std@@@2@@std@@QEAAAEAHAEBV?$basic_string@DU?$char_traits@D@std@@V?$allocator@D@2@@1@@Z
	??A?$map@V?$basic_string@DU?$char_traits@D@std@@V?$allocator@D@2@@std@@PEAUggml_tensor@@U?$less@V?$basic_string@DU?$char_traits@D@std@@V?$allocator@D@2@@std@@@2@V?$allocator@U?$pair@$$CBV?$basic_string@DU?$char_traits@D@std@@V?$allocator@D@2@@std@@PEAUggml_tensor@@@std@@@2@@std@@QEAAAEAPEAUggml_tensor@@$$QEAV?$basic_string@DU?$char_traits@D@std@@V?$allocator@D@2@@1@@Z
	??A?$map@V?$basic_string@DU?$char_traits@D@std@@V?$allocator@D@2@@std@@PEAUggml_tensor@@U?$less@V?$basic_string@DU?$char_traits@D@std@@V?$allocator@D@2@@std@@@2@V?$allocator@U?$pair@$$CBV?$basic_string@DU?$char_traits@D@std@@V?$allocator@D@2@@std@@PEAUggml_tensor@@@std@@@2@@std@@QEAAAEAPEAUggml_tensor@@AEBV?$basic_string@DU?$char_traits@D@std@@V?$allocator@D@2@@1@@Z
	??A?$vector@DV?$allocator@D@std@@@std@@QEAAAEAD_K@Z
	??A?$vector@HV?$allocator@H@std@@@std@@QEAAAEAH_K@Z
	??A?$vector@HV?$allocator@H@std@@@std@@QEBAAEBH_K@Z
	??A?$vector@IV?$allocator@I@std@@@std@@QEBAAEBI_K@Z
	??A?$vector@MV?$allocator@M@std@@@std@@QEAAAEAM_K@Z
	??A?$vector@MV?$allocator@M@std@@@std@@QEBAAEBM_K@Z
	??A?$vector@PEAUggml_backend@@V?$allocator@PEAUggml_backend@@@std@@@std@@QEAAAEAPEAUggml_backend@@_K@Z
	??A?$vector@Uparakeet_layer_encoder@@V?$allocator@Uparakeet_layer_encoder@@@std@@@std@@QEAAAEAUparakeet_layer_encoder@@_K@Z
	??A?$vector@Uparakeet_layer_encoder@@V?$allocator@Uparakeet_layer_encoder@@@std@@@std@@QEBAAEBUparakeet_layer_encoder@@_K@Z
	??A?$vector@Uparakeet_lsmt_layer@@V?$allocator@Uparakeet_lsmt_layer@@@std@@@std@@QEAAAEAUparakeet_lsmt_layer@@_K@Z
	??A?$vector@Uparakeet_lsmt_layer@@V?$allocator@Uparakeet_lsmt_layer@@@std@@@std@@QEBAAEBUparakeet_lsmt_layer@@_K@Z
	??A?$vector@Uparakeet_lstm_state_layer@@V?$allocator@Uparakeet_lstm_state_layer@@@std@@@std@@QEAAAEAUparakeet_lstm_state_layer@@_K@Z
	??A?$vector@Uparakeet_segment@@V?$allocator@Uparakeet_segment@@@std@@@std@@QEAAAEAUparakeet_segment@@_K@Z
	??A?$vector@Uparakeet_token_data@@V?$allocator@Uparakeet_token_data@@@std@@@std@@QEAAAEAUparakeet_token_data@@_K@Z
	??A?$vector@Vthread@std@@V?$allocator@Vthread@std@@@2@@std@@QEAAAEAVthread@1@_K@Z
	??B?$fpos@U_Mbstatet@@@std@@QEBA_JXZ
	??B?$reference_wrapper@$$CBUparakeet_filters@@@std@@QEBAAEBUparakeet_filters@@XZ
	??B?$reference_wrapper@$$CBUparakeet_mel_cache@@@std@@QEBAAEBUparakeet_mel_cache@@XZ
	??B?$reference_wrapper@$$CBV?$vector@MV?$allocator@M@std@@@std@@@std@@QEBAAEBV?$vector@MV?$allocator@M@std@@@1@XZ
	??B?$reference_wrapper@Uparakeet_mel@@@std@@QEBAAEAUparakeet_mel@@XZ
	??B?$unique_ptr@Uggml_context@@Uggml_context_deleter@@@std@@QEBA_NXZ
	??Bsentry@?$basic_ostream@DU?$char_traits@D@std@@@std@@QEBA_NXZ
	??C?$_Tree_const_iterator@V?$_Tree_val@U?$_Tree_simple_types@U?$pair@$$CBV?$basic_string@DU?$char_traits@D@std@@V?$allocator@D@2@@std@@H@std@@@std@@@std@@@std@@QEBAPEBU?$pair@$$CBV?$basic_string@DU?$char_traits@D@std@@V?$allocator@D@2@@std@@H@1@XZ
	??C?$_Tree_iterator@V?$_Tree_val@U?$_Tree_simple_types@U?$pair@QEAUggml_backend_buffer_type@@PEAUggml_context@@@std@@@std@@@std@@@std@@QEBAPEAU?$pair@QEAUggml_backend_buffer_type@@PEAUggml_context@@@1@XZ
	??D?$_Tree_const_iterator@V?$_Tree_val@U?$_Tree_simple_types@U?$pair@$$CBV?$basic_string@DU?$char_traits@D@std@@V?$allocator@D@2@@std@@H@std@@@std@@@std@@@std@@QEBAAEBU?$pair@$$CBV?$basic_string@DU?$char_traits@D@std@@V?$allocator@D@2@@std@@H@1@XZ
	??D?$_Tree_const_iterator@V?$_Tree_val@U?$_Tree_simple_types@U?$pair@QEAUggml_backend_buffer_type@@PEAUggml_context@@@std@@@std@@@std@@@std@@QEBAAEBU?$pair@QEAUggml_backend_buffer_type@@PEAUggml_context@@@1@XZ
	??D?$_Tree_iterator@V?$_Tree_val@U?$_Tree_simple_types@U?$pair@QEAUggml_backend_buffer_type@@PEAUggml_context@@@std@@@std@@@std@@@std@@QEBAAEAU?$pair@QEAUggml_backend_buffer_type@@PEAUggml_context@@@1@XZ
	??D?$_Tree_unchecked_const_iterator@V?$_Tree_val@U?$_Tree_simple_types@U?$pair@QEAUggml_backend_buffer_type@@PEAUggml_context@@@std@@@std@@@std@@U_Iterator_base0@2@@std@@QEBAAEBU?$pair@QEAUggml_backend_buffer_type@@PEAUggml_context@@@1@XZ
	??D?$_Tree_unchecked_iterator@V?$_Tree_val@U?$_Tree_simple_types@U?$pair@QEAUggml_backend_buffer_type@@PEAUggml_context@@@std@@@std@@@std@@@std@@QEBAAEAU?$pair@QEAUggml_backend_buffer_type@@PEAUggml_context@@@1@XZ
	??E?$_Tree_unchecked_const_iterator@V?$_Tree_val@U?$_Tree_simple_types@U?$pair@$$CBW4parakeet_tensor@@PEBD@std@@@std@@@std@@U_Iterator_base0@2@@std@@QEAAAEAV01@XZ
	??E?$_Tree_unchecked_const_iterator@V?$_Tree_val@U?$_Tree_simple_types@U?$pair@$$CBW4parakeet_tensor@@W4ggml_op@@@std@@@std@@@std@@U_Iterator_base0@2@@std@@QEAAAEAV01@XZ
	??E?$_Tree_unchecked_const_iterator@V?$_Tree_val@U?$_Tree_simple_types@U?$pair@QEAUggml_backend_buffer_type@@PEAUggml_context@@@std@@@std@@@std@@U_Iterator_base0@2@@std@@QEAAAEAV01@XZ
	??E?$_Tree_unchecked_iterator@V?$_Tree_val@U?$_Tree_simple_types@U?$pair@QEAUggml_backend_buffer_type@@PEAUggml_context@@@std@@@std@@@std@@@std@@QEAAAEAV01@XZ
	??F?$_Tree_unchecked_const_iterator@V?$_Tree_val@U?$_Tree_simple_types@U?$pair@$$CBW4parakeet_tensor@@PEBD@std@@@std@@@std@@U_Iterator_base0@2@@std@@QEAAAEAV01@XZ
	??F?$_Tree_unchecked_const_iterator@V?$_Tree_val@U?$_Tree_simple_types@U?$pair@$$CBW4parakeet_tensor@@W4ggml_op@@@std@@@std@@@std@@U_Iterator_base0@2@@std@@QEAAAEAV01@XZ
	??H?$_Vector_iterator@V?$_Vector_val@U?$_Simple_types@M@std@@@std@@@std@@QEBA?AV01@_J@Z
	??R<lambda_25953b27f3c43b57ba59f021c7f225c5>@@SA@QEA_WQEB_W_K_W@Z
	??R<lambda_319d5e083f45f90dcdce5dce53cbb275>@@SA@QEADQEBD_KD@Z
	??R<lambda_6e107f859707de1a71dcca60860853b1>@@SA@QEADQEBD_K12@Z
	??R<lambda_9013ee9e23efe4882b67eff5b0ecf103>@@SA@QEADQEBD_K@Z
	??R<lambda_942448a5eca1a40cdf35e7a483deabf2>@@SA@QEA_WQEB_W_K12@Z
	??R<lambda_a132b9f505f015b07a26cb4edca31da2>@@SA@QEAD_KQEBD@Z
	??R<lambda_a3050a43f3157934f354774ab3dd2e02>@@SA@QEA_WQEB_W_K2_W@Z
	??R?$_Func_class@PEAUggml_cgraph@@$$V@std@@QEBAPEAUggml_cgraph@@XZ
	??R?$default_delete@V?$tuple@P6AXUmel_worker_params@@PEBMAEBV?$vector@MV?$allocator@M@std@@@std@@AEBUparakeet_filters@@AEAUparakeet_mel@@AEBUparakeet_mel_cache@@@ZU1@PEBMV?$reference_wrapper@$$CBV?$vector@MV?$allocator@M@std@@@std@@@3@V?$reference_wrapper@$$CBUparakeet_filters@@@3@V?$reference_wrapper@Uparakeet_mel@@@3@V?$reference_wrapper@$$CBUparakeet_mel_cache@@@3@@std@@@std@@QEBAXPEAV?$tuple@P6AXUmel_worker_params@@PEBMAEBV?$vector@MV?$allocator@M@std@@@std@@AEBUparakeet_filters@@AEAUparakeet_mel@@AEBUparakeet_mel_cache@@@ZU1@PEBMV?$reference_wrapper@$$CBV?$vector@MV?$allocator@M@std@@@std@@@3@V?$reference_wrapper@$$CBUparakeet_filters@@@3@V?$reference_wrapper@Uparakeet_mel@@@3@V?$reference_wrapper@$$CBUparakeet_mel_cache@@@3@@1@@Z
	??R?$default_delete@V_Facet_base@std@@@std@@QEBAXPEAV_Facet_base@1@@Z
	??R?$less@H@std@@QEBA_NAEBH0@Z
	??R?$less@PEAUggml_backend_buffer_type@@@std@@QEBA_NAEBQEAUggml_backend_buffer_type@@0@Z
	??R?$less@V?$basic_string@DU?$char_traits@D@std@@V?$allocator@D@2@@std@@@std@@QEBA_NAEBV?$basic_string@DU?$char_traits@D@std@@V?$allocator@D@2@@1@0@Z
	??R?$less@W4parakeet_tensor@@@std@@QEBA_NAEBW4parakeet_tensor@@0@Z
	??Rggml_context_deleter@@QEAAXPEAUggml_context@@@Z
	??Y?$_Vector_const_iterator@V?$_Vector_val@U?$_Simple_types@M@std@@@std@@@std@@QEAAAEAV01@_J@Z
	??Y?$_Vector_iterator@V?$_Vector_val@U?$_Simple_types@M@std@@@std@@@std@@QEAAAEAV01@_J@Z
	??Y?$basic_string@DU?$char_traits@D@std@@V?$allocator@D@2@@std@@QEAAAEAV01@AEBV01@@Z
	??Y?$basic_string@DU?$char_traits@D@std@@V?$allocator@D@2@@std@@QEAAAEAV01@D@Z
	??Y?$basic_string@DU?$char_traits@D@std@@V?$allocator@D@2@@std@@QEAAAEAV01@QEBD@Z
	??_7?$basic_filebuf@DU?$char_traits@D@std@@@std@@6B@
	??_7?$basic_ifstream@DU?$char_traits@D@std@@@std@@6B@
	??_7?$basic_ofstream@DU?$char_traits@D@std@@@std@@6B@
	??_7?$codecvt_utf8@_W$0BAPPPP@$0A@@std@@6B@
	??_7?$wstring_convert@V?$codecvt_utf8@_W$0BAPPPP@$0A@@std@@_WV?$allocator@_W@2@V?$allocator@D@2@@std@@6B@
	??_7bad_alloc@std@@6B@
	??_7bad_array_new_length@std@@6B@
	??_7bad_cast@std@@6B@
	??_7exception@std@@6B@
	??_7range_error@std@@6B@
	??_7runtime_error@std@@6B@
	??_D?$basic_ifstream@DU?$char_traits@D@std@@@std@@QEAAXXZ
	??_D?$basic_ofstream@DU?$char_traits@D@std@@@std@@QEAAXXZ
	?_Activate_SSO_buffer@?$_String_val@U?$_Simple_types@D@std@@@std@@QEAAXXZ
	?_Activate_SSO_buffer@?$_String_val@U?$_Simple_types@_W@std@@@std@@QEAAXXZ
	?_Adjust_manually_vector_aligned@std@@YAXAEAPEAXAEA_K@Z
	?_Adopt@_Iterator_base0@std@@QEAAXPEBX@Z
	?_Alloc_proxy@_Container_base0@std@@QEAAXAEBU_Fake_allocator@2@@Z
	?_Alloc_sentinel_and_proxy@?$_Tree@V?$_Tmap_traits@HV?$basic_string@DU?$char_traits@D@std@@V?$allocator@D@2@@std@@U?$less@H@2@V?$allocator@U?$pair@$$CBHV?$basic_string@DU?$char_traits@D@std@@V?$allocator@D@2@@std@@@std@@@2@$0A@@std@@@std@@IEAAXXZ
	?_Alloc_sentinel_and_proxy@?$_Tree@V?$_Tmap_traits@PEAUggml_backend_buffer_type@@PEAUggml_context@@U?$less@PEAUggml_backend_buffer_type@@@std@@V?$allocator@U?$pair@QEAUggml_backend_buffer_type@@PEAUggml_context@@@std@@@4@$0A@@std@@@std@@IEAAXXZ
	?_Alloc_sentinel_and_proxy@?$_Tree@V?$_Tmap_traits@V?$basic_string@DU?$char_traits@D@std@@V?$allocator@D@2@@std@@HU?$less@V?$basic_string@DU?$char_traits@D@std@@V?$allocator@D@2@@std@@@2@V?$allocator@U?$pair@$$CBV?$basic_string@DU?$char_traits@D@std@@V?$allocator@D@2@@std@@H@std@@@2@$0A@@std@@@std@@IEAAXXZ
	?_Alloc_sentinel_and_proxy@?$_Tree@V?$_Tmap_traits@V?$basic_string@DU?$char_traits@D@std@@V?$allocator@D@2@@std@@PEAUggml_tensor@@U?$less@V?$basic_string@DU?$char_traits@D@std@@V?$allocator@D@2@@std@@@2@V?$allocator@U?$pair@$$CBV?$basic_string@DU?$char_traits@D@std@@V?$allocator@D@2@@std@@PEAUggml_tensor@@@std@@@2@$0A@@std@@@std@@IEAAXXZ
	?_Alloc_sentinel_and_proxy@?$_Tree@V?$_Tmap_traits@W4parakeet_tensor@@PEBDU?$less@W4parakeet_tensor@@@std@@V?$allocator@U?$pair@$$CBW4parakeet_tensor@@PEBD@std@@@3@$0A@@std@@@std@@IEAAXXZ
	?_Alloc_sentinel_and_proxy@?$_Tree@V?$_Tmap_traits@W4parakeet_tensor@@W4ggml_op@@U?$less@W4parakeet_tensor@@@std@@V?$allocator@U?$pair@$$CBW4parakeet_tensor@@W4ggml_op@@@std@@@4@$0A@@std@@@std@@IEAAXXZ
	?_Allocate@?$_Alloc_construct_ptr@V?$allocator@U?$_Tree_node@U?$pair@$$CBHV?$basic_string@DU?$char_traits@D@std@@V?$allocator@D@2@@std@@@std@@PEAX@std@@@std@@@std@@QEAAXXZ
	?_Allocate@?$_Alloc_construct_ptr@V?$allocator@U?$_Tree_node@U?$pair@$$CBV?$basic_string@DU?$char_traits@D@std@@V?$allocator@D@2@@std@@H@std@@PEAX@std@@@std@@@std@@QEAAXXZ
	?_Allocate@?$_Alloc_construct_ptr@V?$allocator@U?$_Tree_node@U?$pair@$$CBV?$basic_string@DU?$char_traits@D@std@@V?$allocator@D@2@@std@@PEAUggml_tensor@@@std@@PEAX@std@@@std@@@std@@QEAAXXZ
	?_Allocate@?$_Alloc_construct_ptr@V?$allocator@U?$_Tree_node@U?$pair@$$CBW4parakeet_tensor@@PEBD@std@@PEAX@std@@@std@@@std@@QEAAXXZ
	?_Allocate@?$_Alloc_construct_ptr@V?$allocator@U?$_Tree_node@U?$pair@$$CBW4parakeet_tensor@@W4ggml_op@@@std@@PEAX@std@@@std@@@std@@QEAAXXZ
	?_Allocate@?$_Alloc_construct_ptr@V?$allocator@U?$_Tree_node@U?$pair@QEAUggml_backend_buffer_type@@PEAUggml_context@@@std@@PEAX@std@@@std@@@std@@QEAAXXZ
	?_Allocate@_Default_allocate_traits@std@@SAPEAX_K@Z
	?_Become_small@?$basic_string@DU?$char_traits@D@std@@V?$allocator@D@2@@std@@AEAAXXZ
	?_Buy_nonzero@?$vector@DV?$allocator@D@std@@@std@@AEAAX_K@Z
	?_Buy_nonzero@?$vector@MV?$allocator@M@std@@@std@@AEAAX_K@Z
	?_Buy_nonzero@?$vector@PEAUggml_backend@@V?$allocator@PEAUggml_backend@@@std@@@std@@AEAAX_K@Z
	?_Buy_nonzero@?$vector@U?$pair@PEAUggml_backend_device@@PEAUggml_backend_buffer_type@@@std@@V?$allocator@U?$pair@PEAUggml_backend_device@@PEAUggml_backend_buffer_type@@@std@@@2@@std@@AEAAX_K@Z
	?_Buy_nonzero@?$vector@Vthread@std@@V?$allocator@Vthread@std@@@2@@std@@AEAAX_K@Z
	?_Buy_raw@?$vector@DV?$allocator@D@std@@@std@@AEAAX_K@Z
	?_Buy_raw@?$vector@MV?$allocator@M@std@@@std@@AEAAX_K@Z
	?_Buy_raw@?$vector@PEAUggml_backend@@V?$allocator@PEAUggml_backend@@@std@@@std@@AEAAX_K@Z
	?_Buy_raw@?$vector@U?$pair@PEAUggml_backend_device@@PEAUggml_backend_buffer_type@@@std@@V?$allocator@U?$pair@PEAUggml_backend_device@@PEAUggml_backend_buffer_type@@@std@@@2@@std@@AEAAX_K@Z
	?_Buy_raw@?$vector@Uparakeet_token_data@@V?$allocator@Uparakeet_token_data@@@std@@@std@@AEAAX_K@Z
	?_Buy_raw@?$vector@Vthread@std@@V?$allocator@Vthread@std@@@2@@std@@AEAAX_K@Z
	?_Calculate_growth@?$basic_string@DU?$char_traits@D@std@@V?$allocator@D@2@@std@@AEBA_K_K@Z
	?_Calculate_growth@?$basic_string@DU?$char_traits@D@std@@V?$allocator@D@2@@std@@CA_K_K00@Z
	?_Calculate_growth@?$basic_string@_WU?$char_traits@_W@std@@V?$allocator@_W@2@@std@@AEBA_K_K@Z
	?_Calculate_growth@?$basic_string@_WU?$char_traits@_W@std@@V?$allocator@_W@2@@std@@CA_K_K00@Z
	?_Calculate_growth@?$vector@DV?$allocator@D@std@@@std@@AEBA_K_K@Z
	?_Calculate_growth@?$vector@EV?$allocator@E@std@@@std@@AEBA_K_K@Z
	?_Calculate_growth@?$vector@HV?$allocator@H@std@@@std@@AEBA_K_K@Z
	?_Calculate_growth@?$vector@IV?$allocator@I@std@@@std@@AEBA_K_K@Z
	?_Calculate_growth@?$vector@MV?$allocator@M@std@@@std@@AEBA_K_K@Z
	?_Calculate_growth@?$vector@PEAUggml_backend@@V?$allocator@PEAUggml_backend@@@std@@@std@@AEBA_K_K@Z
	?_Calculate_growth@?$vector@PEAUggml_backend_buffer@@V?$allocator@PEAUggml_backend_buffer@@@std@@@std@@AEBA_K_K@Z
	?_Calculate_growth@?$vector@PEAUggml_context@@V?$allocator@PEAUggml_context@@@std@@@std@@AEBA_K_K@Z
	?_Calculate_growth@?$vector@U?$pair@PEAUggml_backend_device@@PEAUggml_backend_buffer_type@@@std@@V?$allocator@U?$pair@PEAUggml_backend_device@@PEAUggml_backend_buffer_type@@@std@@@2@@std@@AEBA_K_K@Z
	?_Calculate_growth@?$vector@Uparakeet_layer_encoder@@V?$allocator@Uparakeet_layer_encoder@@@std@@@std@@AEBA_K_K@Z
	?_Calculate_growth@?$vector@Uparakeet_lsmt_layer@@V?$allocator@Uparakeet_lsmt_layer@@@std@@@std@@AEBA_K_K@Z
	?_Calculate_growth@?$vector@Uparakeet_lstm_state_layer@@V?$allocator@Uparakeet_lstm_state_layer@@@std@@@std@@AEBA_K_K@Z
	?_Calculate_growth@?$vector@Uparakeet_segment@@V?$allocator@Uparakeet_segment@@@std@@@std@@AEBA_K_K@Z
	?_Calculate_growth@?$vector@Uparakeet_token_data@@V?$allocator@Uparakeet_token_data@@@std@@@std@@AEBA_K_K@Z
	?_Change_array@?$vector@DV?$allocator@D@std@@@std@@AEAAXQEAD_K1@Z
	?_Change_array@?$vector@EV?$allocator@E@std@@@std@@AEAAXQEAE_K1@Z
	?_Change_array@?$vector@HV?$allocator@H@std@@@std@@AEAAXQEAH_K1@Z
	?_Change_array@?$vector@IV?$allocator@I@std@@@std@@AEAAXQEAI_K1@Z
	?_Change_array@?$vector@MV?$allocator@M@std@@@std@@AEAAXQEAM_K1@Z
	?_Change_array@?$vector@PEAUggml_backend@@V?$allocator@PEAUggml_backend@@@std@@@std@@AEAAXQEAPEAUggml_backend@@_K1@Z
	?_Change_array@?$vector@PEAUggml_backend_buffer@@V?$allocator@PEAUggml_backend_buffer@@@std@@@std@@AEAAXQEAPEAUggml_backend_buffer@@_K1@Z
	?_Change_array@?$vector@PEAUggml_context@@V?$allocator@PEAUggml_context@@@std@@@std@@AEAAXQEAPEAUggml_context@@_K1@Z
	?_Change_array@?$vector@U?$pair@PEAUggml_backend_device@@PEAUggml_backend_buffer_type@@@std@@V?$allocator@U?$pair@PEAUggml_backend_device@@PEAUggml_backend_buffer_type@@@std@@@2@@std@@AEAAXQEAU?$pair@PEAUggml_backend_device@@PEAUggml_backend_buffer_type@@@2@_K1@Z
	?_Change_array@?$vector@Uparakeet_layer_encoder@@V?$allocator@Uparakeet_layer_encoder@@@std@@@std@@AEAAXQEAUparakeet_layer_encoder@@_K1@Z
	?_Change_array@?$vector@Uparakeet_lsmt_layer@@V?$allocator@Uparakeet_lsmt_layer@@@std@@@std@@AEAAXQEAUparakeet_lsmt_layer@@_K1@Z
	?_Change_array@?$vector@Uparakeet_lstm_state_layer@@V?$allocator@Uparakeet_lstm_state_layer@@@std@@@std@@AEAAXQEAUparakeet_lstm_state_layer@@_K1@Z
	?_Change_array@?$vector@Uparakeet_segment@@V?$allocator@Uparakeet_segment@@@std@@@std@@AEAAXQEAUparakeet_segment@@_K1@Z
	?_Change_array@?$vector@Uparakeet_token_data@@V?$allocator@Uparakeet_token_data@@@std@@@std@@AEAAXQEAUparakeet_token_data@@_K1@Z
	?_Check_grow_by_1@?$_Tree@V?$_Tmap_traits@HV?$basic_string@DU?$char_traits@D@std@@V?$allocator@D@2@@std@@U?$less@H@2@V?$allocator@U?$pair@$$CBHV?$basic_string@DU?$char_traits@D@std@@V?$allocator@D@2@@std@@@std@@@2@$0A@@std@@@std@@IEAAXXZ
	?_Check_grow_by_1@?$_Tree@V?$_Tmap_traits@PEAUggml_backend_buffer_type@@PEAUggml_context@@U?$less@PEAUggml_backend_buffer_type@@@std@@V?$allocator@U?$pair@QEAUggml_backend_buffer_type@@PEAUggml_context@@@std@@@4@$0A@@std@@@std@@IEAAXXZ
	?_Check_grow_by_1@?$_Tree@V?$_Tmap_traits@V?$basic_string@DU?$char_traits@D@std@@V?$allocator@D@2@@std@@HU?$less@V?$basic_string@DU?$char_traits@D@std@@V?$allocator@D@2@@std@@@2@V?$allocator@U?$pair@$$CBV?$basic_string@DU?$char_traits@D@std@@V?$allocator@D@2@@std@@H@std@@@2@$0A@@std@@@std@@IEAAXXZ
	?_Check_grow_by_1@?$_Tree@V?$_Tmap_traits@V?$basic_string@DU?$char_traits@D@std@@V?$allocator@D@2@@std@@PEAUggml_tensor@@U?$less@V?$basic_string@DU?$char_traits@D@std@@V?$allocator@D@2@@std@@@2@V?$allocator@U?$pair@$$CBV?$basic_string@DU?$char_traits@D@std@@V?$allocator@D@2@@std@@PEAUggml_tensor@@@std@@@2@$0A@@std@@@std@@IEAAXXZ
	?_Check_grow_by_1@?$_Tree@V?$_Tmap_traits@W4parakeet_tensor@@PEBDU?$less@W4parakeet_tensor@@@std@@V?$allocator@U?$pair@$$CBW4parakeet_tensor@@PEBD@std@@@3@$0A@@std@@@std@@IEAAXXZ
	?_Check_grow_by_1@?$_Tree@V?$_Tmap_traits@W4parakeet_tensor@@W4ggml_op@@U?$less@W4parakeet_tensor@@@std@@V?$allocator@U?$pair@$$CBW4parakeet_tensor@@W4ggml_op@@@std@@@4@$0A@@std@@@std@@IEAAXXZ
	?_Check_offset@?$_String_val@U?$_Simple_types@D@std@@@std@@QEBAX_K@Z
	?_Clamp_suffix_size@?$_String_val@U?$_Simple_types@D@std@@@std@@QEBA_K_K0@Z
	?_Clear_and_reserve_geometric@?$vector@Uparakeet_token_data@@V?$allocator@Uparakeet_token_data@@@std@@@std@@AEAAX_K@Z
	?_Construct_empty@?$basic_string@DU?$char_traits@D@std@@V?$allocator@D@2@@std@@AEAAXXZ
	?_Construct_empty@?$basic_string@_WU?$char_traits@_W@std@@V?$allocator@_W@2@@std@@AEAAXXZ
	?_Deallocate_for_capacity@?$basic_string@DU?$char_traits@D@std@@V?$allocator@D@2@@std@@CAXAEAV?$allocator@D@2@QEAD_K@Z
	?_Deallocate_for_capacity@?$basic_string@_WU?$char_traits@_W@std@@V?$allocator@_W@2@@std@@CAXAEAV?$allocator@_W@2@QEA_W_K@Z
	?_Empty@?$_Func_class@PEAUggml_cgraph@@$$V@std@@IEBA_NXZ
	?_Endwrite@?$basic_filebuf@DU?$char_traits@D@std@@@std@@IEAA_NXZ
	?_Equal@?$basic_string@DU?$char_traits@D@std@@V?$allocator@D@2@@std@@QEBA_NQEBD@Z
	?_Erase_noexcept@?$basic_string@DU?$char_traits@D@std@@V?$allocator@D@2@@std@@AEAAAEAV12@_K_K@Z
	?_Extract@?$_In_place_key_extract_map_impl@W4parakeet_tensor@@U?$pair@$$CBW4parakeet_tensor@@PEBD@std@@@std@@SAAEBW4parakeet_tensor@@AEBU?$pair@$$CBW4parakeet_tensor@@PEBD@2@@Z
	?_Extract@?$_In_place_key_extract_map_impl@W4parakeet_tensor@@U?$pair@$$CBW4parakeet_tensor@@W4ggml_op@@@std@@@std@@SAAEBW4parakeet_tensor@@AEBU?$pair@$$CBW4parakeet_tensor@@W4ggml_op@@@2@@Z
	?_Get_first@?$_Compressed_pair@U?$default_delete@V?$tuple@P6AXUmel_worker_params@@PEBMAEBV?$vector@MV?$allocator@M@std@@@std@@AEBUparakeet_filters@@AEAUparakeet_mel@@AEBUparakeet_mel_cache@@@ZU1@PEBMV?$reference_wrapper@$$CBV?$vector@MV?$allocator@M@std@@@std@@@3@V?$reference_wrapper@$$CBUparakeet_filters@@@3@V?$reference_wrapper@Uparakeet_mel@@@3@V?$reference_wrapper@$$CBUparakeet_mel_cache@@@3@@std@@@std@@PEAV?$tuple@P6AXUmel_worker_params@@PEBMAEBV?$vector@MV?$allocator@M@std@@@std@@AEBUparakeet_filters@@AEAUparakeet_mel@@AEBUparakeet_mel_cache@@@ZU1@PEBMV?$reference_wrapper@$$CBV?$vector@MV?$allocator@M@std@@@std@@@3@V?$reference_wrapper@$$CBUparakeet_filters@@@3@V?$reference_wrapper@Uparakeet_mel@@@3@V?$reference_wrapper@$$CBUparakeet_mel_cache@@@3@@2@$00@std@@QEAAAEAU?$default_delete@V?$tuple@P6AXUmel_worker_params@@PEBMAEBV?$vector@MV?$allocator@M@std@@@std@@AEBUparakeet_filters@@AEAUparakeet_mel@@AEBUparakeet_mel_cache@@@ZU1@PEBMV?$reference_wrapper@$$CBV?$vector@MV?$allocator@M@std@@@std@@@3@V?$reference_wrapper@$$CBUparakeet_filters@@@3@V?$reference_wrapper@Uparakeet_mel@@@3@V?$reference_wrapper@$$CBUparakeet_mel_cache@@@3@@std@@@2@XZ
	?_Get_first@?$_Compressed_pair@U?$default_delete@V_Facet_base@std@@@std@@PEAV_Facet_base@2@$00@std@@QEAAAEAU?$default_delete@V_Facet_base@std@@@2@XZ
	?_Get_first@?$_Compressed_pair@U?$less@H@std@@V?$_Compressed_pair@V?$allocator@U?$_Tree_node@U?$pair@$$CBHV?$basic_string@DU?$char_traits@D@std@@V?$allocator@D@2@@std@@@std@@PEAX@std@@@std@@V?$_Tree_val@U?$_Tree_simple_types@U?$pair@$$CBHV?$basic_string@DU?$char_traits@D@std@@V?$allocator@D@2@@std@@@std@@@std@@@2@$00@2@$00@std@@QEBAAEBU?$less@H@2@XZ
	?_Get_first@?$_Compressed_pair@U?$less@PEAUggml_backend_buffer_type@@@std@@V?$_Compressed_pair@V?$allocator@U?$_Tree_node@U?$pair@QEAUggml_backend_buffer_type@@PEAUggml_context@@@std@@PEAX@std@@@std@@V?$_Tree_val@U?$_Tree_simple_types@U?$pair@QEAUggml_backend_buffer_type@@PEAUggml_context@@@std@@@std@@@2@$00@2@$00@std@@QEBAAEBU?$less@PEAUggml_backend_buffer_type@@@2@XZ
	?_Get_first@?$_Compressed_pair@U?$less@V?$basic_string@DU?$char_traits@D@std@@V?$allocator@D@2@@std@@@std@@V?$_Compressed_pair@V?$allocator@U?$_Tree_node@U?$pair@$$CBV?$basic_string@DU?$char_traits@D@std@@V?$allocator@D@2@@std@@H@std@@PEAX@std@@@std@@V?$_Tree_val@U?$_Tree_simple_types@U?$pair@$$CBV?$basic_string@DU?$char_traits@D@std@@V?$allocator@D@2@@std@@H@std@@@std@@@2@$00@2@$00@std@@QEBAAEBU?$less@V?$basic_string@DU?$char_traits@D@std@@V?$allocator@D@2@@std@@@2@XZ
	?_Get_first@?$_Compressed_pair@U?$less@V?$basic_string@DU?$char_traits@D@std@@V?$allocator@D@2@@std@@@std@@V?$_Compressed_pair@V?$allocator@U?$_Tree_node@U?$pair@$$CBV?$basic_string@DU?$char_traits@D@std@@V?$allocator@D@2@@std@@PEAUggml_tensor@@@std@@PEAX@std@@@std@@V?$_Tree_val@U?$_Tree_simple_types@U?$pair@$$CBV?$basic_string@DU?$char_traits@D@std@@V?$allocator@D@2@@std@@PEAUggml_tensor@@@std@@@std@@@2@$00@2@$00@std@@QEBAAEBU?$less@V?$basic_string@DU?$char_traits@D@std@@V?$allocator@D@2@@std@@@2@XZ
	?_Get_first@?$_Compressed_pair@U?$less@W4parakeet_tensor@@@std@@V?$_Compressed_pair@V?$allocator@U?$_Tree_node@U?$pair@$$CBW4parakeet_tensor@@PEBD@std@@PEAX@std@@@std@@V?$_Tree_val@U?$_Tree_simple_types@U?$pair@$$CBW4parakeet_tensor@@PEBD@std@@@std@@@2@$00@2@$00@std@@QEBAAEBU?$less@W4parakeet_tensor@@@2@XZ
	?_Get_first@?$_Compressed_pair@U?$less@W4parakeet_tensor@@@std@@V?$_Compressed_pair@V?$allocator@U?$_Tree_node@U?$pair@$$CBW4parakeet_tensor@@W4ggml_op@@@std@@PEAX@std@@@std@@V?$_Tree_val@U?$_Tree_simple_types@U?$pair@$$CBW4parakeet_tensor@@W4ggml_op@@@std@@@std@@@2@$00@2@$00@std@@QEBAAEBU?$less@W4parakeet_tensor@@@2@XZ
	?_Get_first@?$_Compressed_pair@Uggml_context_deleter@@PEAUggml_context@@$00@std@@QEAAAEAUggml_context_deleter@@XZ
	?_Get_first@?$_Compressed_pair@V?$allocator@D@std@@V?$_String_val@U?$_Simple_types@D@std@@@2@$00@std@@QEAAAEAV?$allocator@D@2@XZ
	?_Get_first@?$_Compressed_pair@V?$allocator@D@std@@V?$_String_val@U?$_Simple_types@D@std@@@2@$00@std@@QEBAAEBV?$allocator@D@2@XZ
	?_Get_first@?$_Compressed_pair@V?$allocator@D@std@@V?$_Vector_val@U?$_Simple_types@D@std@@@2@$00@std@@QEAAAEAV?$allocator@D@2@XZ
	?_Get_first@?$_Compressed_pair@V?$allocator@D@std@@V?$_Vector_val@U?$_Simple_types@D@std@@@2@$00@std@@QEBAAEBV?$allocator@D@2@XZ
	?_Get_first@?$_Compressed_pair@V?$allocator@E@std@@V?$_Vector_val@U?$_Simple_types@E@std@@@2@$00@std@@QEAAAEAV?$allocator@E@2@XZ
	?_Get_first@?$_Compressed_pair@V?$allocator@E@std@@V?$_Vector_val@U?$_Simple_types@E@std@@@2@$00@std@@QEBAAEBV?$allocator@E@2@XZ
	?_Get_first@?$_Compressed_pair@V?$allocator@H@std@@V?$_Vector_val@U?$_Simple_types@H@std@@@2@$00@std@@QEAAAEAV?$allocator@H@2@XZ
	?_Get_first@?$_Compressed_pair@V?$allocator@H@std@@V?$_Vector_val@U?$_Simple_types@H@std@@@2@$00@std@@QEBAAEBV?$allocator@H@2@XZ
	?_Get_first@?$_Compressed_pair@V?$allocator@I@std@@V?$_Vector_val@U?$_Simple_types@I@std@@@2@$00@std@@QEAAAEAV?$allocator@I@2@XZ
	?_Get_first@?$_Compressed_pair@V?$allocator@I@std@@V?$_Vector_val@U?$_Simple_types@I@std@@@2@$00@std@@QEBAAEBV?$allocator@I@2@XZ
	?_Get_first@?$_Compressed_pair@V?$allocator@M@std@@V?$_Vector_val@U?$_Simple_types@M@std@@@2@$00@std@@QEAAAEAV?$allocator@M@2@XZ
	?_Get_first@?$_Compressed_pair@V?$allocator@M@std@@V?$_Vector_val@U?$_Simple_types@M@std@@@2@$00@std@@QEBAAEBV?$allocator@M@2@XZ
	?_Get_first@?$_Compressed_pair@V?$allocator@PEAUggml_backend@@@std@@V?$_Vector_val@U?$_Simple_types@PEAUggml_backend@@@std@@@2@$00@std@@QEAAAEAV?$allocator@PEAUggml_backend@@@2@XZ
	?_Get_first@?$_Compressed_pair@V?$allocator@PEAUggml_backend@@@std@@V?$_Vector_val@U?$_Simple_types@PEAUggml_backend@@@std@@@2@$00@std@@QEBAAEBV?$allocator@PEAUggml_backend@@@2@XZ
	?_Get_first@?$_Compressed_pair@V?$allocator@PEAUggml_backend_buffer@@@std@@V?$_Vector_val@U?$_Simple_types@PEAUggml_backend_buffer@@@std@@@2@$00@std@@QEAAAEAV?$allocator@PEAUggml_backend_buffer@@@2@XZ
	?_Get_first@?$_Compressed_pair@V?$allocator@PEAUggml_backend_buffer@@@std@@V?$_Vector_val@U?$_Simple_types@PEAUggml_backend_buffer@@@std@@@2@$00@std@@QEBAAEBV?$allocator@PEAUggml_backend_buffer@@@2@XZ
	?_Get_first@?$_Compressed_pair@V?$allocator@PEAUggml_context@@@std@@V?$_Vector_val@U?$_Simple_types@PEAUggml_context@@@std@@@2@$00@std@@QEAAAEAV?$allocator@PEAUggml_context@@@2@XZ
	?_Get_first@?$_Compressed_pair@V?$allocator@PEAUggml_context@@@std@@V?$_Vector_val@U?$_Simple_types@PEAUggml_context@@@std@@@2@$00@std@@QEBAAEBV?$allocator@PEAUggml_context@@@2@XZ
	?_Get_first@?$_Compressed_pair@V?$allocator@U?$_Tree_node@U?$pair@$$CBHV?$basic_string@DU?$char_traits@D@std@@V?$allocator@D@2@@std@@@std@@PEAX@std@@@std@@V?$_Tree_val@U?$_Tree_simple_types@U?$pair@$$CBHV?$basic_string@DU?$char_traits@D@std@@V?$allocator@D@2@@std@@@std@@@std@@@2@$00@std@@QEAAAEAV?$allocator@U?$_Tree_node@U?$pair@$$CBHV?$basic_string@DU?$char_traits@D@std@@V?$allocator@D@2@@std@@@std@@PEAX@std@@@2@XZ
	?_Get_first@?$_Compressed_pair@V?$allocator@U?$_Tree_node@U?$pair@$$CBHV?$basic_string@DU?$char_traits@D@std@@V?$allocator@D@2@@std@@@std@@PEAX@std@@@std@@V?$_Tree_val@U?$_Tree_simple_types@U?$pair@$$CBHV?$basic_string@DU?$char_traits@D@std@@V?$allocator@D@2@@std@@@std@@@std@@@2@$00@std@@QEBAAEBV?$allocator@U?$_Tree_node@U?$pair@$$CBHV?$basic_string@DU?$char_traits@D@std@@V?$allocator@D@2@@std@@@std@@PEAX@std@@@2@XZ
	?_Get_first@?$_Compressed_pair@V?$allocator@U?$_Tree_node@U?$pair@$$CBV?$basic_string@DU?$char_traits@D@std@@V?$allocator@D@2@@std@@H@std@@PEAX@std@@@std@@V?$_Tree_val@U?$_Tree_simple_types@U?$pair@$$CBV?$basic_string@DU?$char_traits@D@std@@V?$allocator@D@2@@std@@H@std@@@std@@@2@$00@std@@QEAAAEAV?$allocator@U?$_Tree_node@U?$pair@$$CBV?$basic_string@DU?$char_traits@D@std@@V?$allocator@D@2@@std@@H@std@@PEAX@std@@@2@XZ
	?_Get_first@?$_Compressed_pair@V?$allocator@U?$_Tree_node@U?$pair@$$CBV?$basic_string@DU?$char_traits@D@std@@V?$allocator@D@2@@std@@H@std@@PEAX@std@@@std@@V?$_Tree_val@U?$_Tree_simple_types@U?$pair@$$CBV?$basic_string@DU?$char_traits@D@std@@V?$allocator@D@2@@std@@H@std@@@std@@@2@$00@std@@QEBAAEBV?$allocator@U?$_Tree_node@U?$pair@$$CBV?$basic_string@DU?$char_traits@D@std@@V?$allocator@D@2@@std@@H@std@@PEAX@std@@@2@XZ
	?_Get_first@?$_Compressed_pair@V?$allocator@U?$_Tree_node@U?$pair@$$CBV?$basic_string@DU?$char_traits@D@std@@V?$allocator@D@2@@std@@PEAUggml_tensor@@@std@@PEAX@std@@@std@@V?$_Tree_val@U?$_Tree_simple_types@U?$pair@$$CBV?$basic_string@DU?$char_traits@D@std@@V?$allocator@D@2@@std@@PEAUggml_tensor@@@std@@@std@@@2@$00@std@@QEAAAEAV?$allocator@U?$_Tree_node@U?$pair@$$CBV?$basic_string@DU?$char_traits@D@std@@V?$allocator@D@2@@std@@PEAUggml_tensor@@@std@@PEAX@std@@@2@XZ
	?_Get_first@?$_Compressed_pair@V?$allocator@U?$_Tree_node@U?$pair@$$CBV?$basic_string@DU?$char_traits@D@std@@V?$allocator@D@2@@std@@PEAUggml_tensor@@@std@@PEAX@std@@@std@@V?$_Tree_val@U?$_Tree_simple_types@U?$pair@$$CBV?$basic_string@DU?$char_traits@D@std@@V?$allocator@D@2@@std@@PEAUggml_tensor@@@std@@@std@@@2@$00@std@@QEBAAEBV?$allocator@U?$_Tree_node@U?$pair@$$CBV?$basic_string@DU?$char_traits@D@std@@V?$allocator@D@2@@std@@PEAUggml_tensor@@@std@@PEAX@std@@@2@XZ
	?_Get_first@?$_Compressed_pair@V?$allocator@U?$_Tree_node@U?$pair@$$CBW4parakeet_tensor@@PEBD@std@@PEAX@std@@@std@@V?$_Tree_val@U?$_Tree_simple_types@U?$pair@$$CBW4parakeet_tensor@@PEBD@std@@@std@@@2@$00@std@@QEAAAEAV?$allocator@U?$_Tree_node@U?$pair@$$CBW4parakeet_tensor@@PEBD@std@@PEAX@std@@@2@XZ
	?_Get_first@?$_Compressed_pair@V?$allocator@U?$_Tree_node@U?$pair@$$CBW4parakeet_tensor@@PEBD@std@@PEAX@std@@@std@@V?$_Tree_val@U?$_Tree_simple_types@U?$pair@$$CBW4parakeet_tensor@@PEBD@std@@@std@@@2@$00@std@@QEBAAEBV?$allocator@U?$_Tree_node@U?$pair@$$CBW4parakeet_tensor@@PEBD@std@@PEAX@std@@@2@XZ
	?_Get_first@?$_Compressed_pair@V?$allocator@U?$_Tree_node@U?$pair@$$CBW4parakeet_tensor@@W4ggml_op@@@std@@PEAX@std@@@std@@V?$_Tree_val@U?$_Tree_simple_types@U?$pair@$$CBW4parakeet_tensor@@W4ggml_op@@@std@@@std@@@2@$00@std@@QEAAAEAV?$allocator@U?$_Tree_node@U?$pair@$$CBW4parakeet_tensor@@W4ggml_op@@@std@@PEAX@std@@@2@XZ
	?_Get_first@?$_Compressed_pair@V?$allocator@U?$_Tree_node@U?$pair@$$CBW4parakeet_tensor@@W4ggml_op@@@std@@PEAX@std@@@std@@V?$_Tree_val@U?$_Tree_simple_types@U?$pair@$$CBW4parakeet_tensor@@W4ggml_op@@@std@@@std@@@2@$00@std@@QEBAAEBV?$allocator@U?$_Tree_node@U?$pair@$$CBW4parakeet_tensor@@W4ggml_op@@@std@@PEAX@std@@@2@XZ
	?_Get_first@?$_Compressed_pair@V?$allocator@U?$_Tree_node@U?$pair@QEAUggml_backend_buffer_type@@PEAUggml_context@@@std@@PEAX@std@@@std@@V?$_Tree_val@U?$_Tree_simple_types@U?$pair@QEAUggml_backend_buffer_type@@PEAUggml_context@@@std@@@std@@@2@$00@std@@QEAAAEAV?$allocator@U?$_Tree_node@U?$pair@QEAUggml_backend_buffer_type@@PEAUggml_context@@@std@@PEAX@std@@@2@XZ
	?_Get_first@?$_Compressed_pair@V?$allocator@U?$_Tree_node@U?$pair@QEAUggml_backend_buffer_type@@PEAUggml_context@@@std@@PEAX@std@@@std@@V?$_Tree_val@U?$_Tree_simple_types@U?$pair@QEAUggml_backend_buffer_type@@PEAUggml_context@@@std@@@std@@@2@$00@std@@QEBAAEBV?$allocator@U?$_Tree_node@U?$pair@QEAUggml_backend_buffer_type@@PEAUggml_context@@@std@@PEAX@std@@@2@XZ
	?_Get_first@?$_Compressed_pair@V?$allocator@U?$pair@PEAUggml_backend_device@@PEAUggml_backend_buffer_type@@@std@@@std@@V?$_Vector_val@U?$_Simple_types@U?$pair@PEAUggml_backend_device@@PEAUggml_backend_buffer_type@@@std@@@std@@@2@$00@std@@QEAAAEAV?$allocator@U?$pair@PEAUggml_backend_device@@PEAUggml_backend_buffer_type@@@std@@@2@XZ
	?_Get_first@?$_Compressed_pair@V?$allocator@U?$pair@PEAUggml_backend_device@@PEAUggml_backend_buffer_type@@@std@@@std@@V?$_Vector_val@U?$_Simple_types@U?$pair@PEAUggml_backend_device@@PEAUggml_backend_buffer_type@@@std@@@std@@@2@$00@std@@QEBAAEBV?$allocator@U?$pair@PEAUggml_backend_device@@PEAUggml_backend_buffer_type@@@std@@@2@XZ
	?_Get_first@?$_Compressed_pair@V?$allocator@Uparakeet_layer_encoder@@@std@@V?$_Vector_val@U?$_Simple_types@Uparakeet_layer_encoder@@@std@@@2@$00@std@@QEAAAEAV?$allocator@Uparakeet_layer_encoder@@@2@XZ
	?_Get_first@?$_Compressed_pair@V?$allocator@Uparakeet_layer_encoder@@@std@@V?$_Vector_val@U?$_Simple_types@Uparakeet_layer_encoder@@@std@@@2@$00@std@@QEBAAEBV?$allocator@Uparakeet_layer_encoder@@@2@XZ
	?_Get_first@?$_Compressed_pair@V?$allocator@Uparakeet_lsmt_layer@@@std@@V?$_Vector_val@U?$_Simple_types@Uparakeet_lsmt_layer@@@std@@@2@$00@std@@QEAAAEAV?$allocator@Uparakeet_lsmt_layer@@@2@XZ
	?_Get_first@?$_Compressed_pair@V?$allocator@Uparakeet_lsmt_layer@@@std@@V?$_Vector_val@U?$_Simple_types@Uparakeet_lsmt_layer@@@std@@@2@$00@std@@QEBAAEBV?$allocator@Uparakeet_lsmt_layer@@@2@XZ
	?_Get_first@?$_Compressed_pair@V?$allocator@Uparakeet_lstm_state_layer@@@std@@V?$_Vector_val@U?$_Simple_types@Uparakeet_lstm_state_layer@@@std@@@2@$00@std@@QEAAAEAV?$allocator@Uparakeet_lstm_state_layer@@@2@XZ
	?_Get_first@?$_Compressed_pair@V?$allocator@Uparakeet_lstm_state_layer@@@std@@V?$_Vector_val@U?$_Simple_types@Uparakeet_lstm_state_layer@@@std@@@2@$00@std@@QEBAAEBV?$allocator@Uparakeet_lstm_state_layer@@@2@XZ
	?_Get_first@?$_Compressed_pair@V?$allocator@Uparakeet_segment@@@std@@V?$_Vector_val@U?$_Simple_types@Uparakeet_segment@@@std@@@2@$00@std@@QEAAAEAV?$allocator@Uparakeet_segment@@@2@XZ
	?_Get_first@?$_Compressed_pair@V?$allocator@Uparakeet_segment@@@std@@V?$_Vector_val@U?$_Simple_types@Uparakeet_segment@@@std@@@2@$00@std@@QEBAAEBV?$allocator@Uparakeet_segment@@@2@XZ
	?_Get_first@?$_Compressed_pair@V?$allocator@Uparakeet_token_data@@@std@@V?$_Vector_val@U?$_Simple_types@Uparakeet_token_data@@@std@@@2@$00@std@@QEAAAEAV?$allocator@Uparakeet_token_data@@@2@XZ
	?_Get_first@?$_Compressed_pair@V?$allocator@Uparakeet_token_data@@@std@@V?$_Vector_val@U?$_Simple_types@Uparakeet_token_data@@@std@@@2@$00@std@@QEBAAEBV?$allocator@Uparakeet_token_data@@@2@XZ
	?_Get_first@?$_Compressed_pair@V?$allocator@Vthread@std@@@std@@V?$_Vector_val@U?$_Simple_types@Vthread@std@@@std@@@2@$00@std@@QEAAAEAV?$allocator@Vthread@std@@@2@XZ
	?_Get_first@?$_Compressed_pair@V?$allocator@Vthread@std@@@std@@V?$_Vector_val@U?$_Simple_types@Vthread@std@@@std@@@2@$00@std@@QEBAAEBV?$allocator@Vthread@std@@@2@XZ
	?_Get_first@?$_Compressed_pair@V?$allocator@_W@std@@V?$_String_val@U?$_Simple_types@_W@std@@@2@$00@std@@QEAAAEAV?$allocator@_W@2@XZ
	?_Get_first@?$_Compressed_pair@V?$allocator@_W@std@@V?$_String_val@U?$_Simple_types@_W@std@@@2@$00@std@@QEBAAEBV?$allocator@_W@2@XZ
	?_Get_scary@?$_Tree@V?$_Tmap_traits@HV?$basic_string@DU?$char_traits@D@std@@V?$allocator@D@2@@std@@U?$less@H@2@V?$allocator@U?$pair@$$CBHV?$basic_string@DU?$char_traits@D@std@@V?$allocator@D@2@@std@@@std@@@2@$0A@@std@@@std@@IEAAPEAV?$_Tree_val@U?$_Tree_simple_types@U?$pair@$$CBHV?$basic_string@DU?$char_traits@D@std@@V?$allocator@D@2@@std@@@std@@@std@@@2@XZ
	?_Get_scary@?$_Tree@V?$_Tmap_traits@HV?$basic_string@DU?$char_traits@D@std@@V?$allocator@D@2@@std@@U?$less@H@2@V?$allocator@U?$pair@$$CBHV?$basic_string@DU?$char_traits@D@std@@V?$allocator@D@2@@std@@@std@@@2@$0A@@std@@@std@@IEBAPEBV?$_Tree_val@U?$_Tree_simple_types@U?$pair@$$CBHV?$basic_string@DU?$char_traits@D@std@@V?$allocator@D@2@@std@@@std@@@std@@@2@XZ
	?_Get_scary@?$_Tree@V?$_Tmap_traits@PEAUggml_backend_buffer_type@@PEAUggml_context@@U?$less@PEAUggml_backend_buffer_type@@@std@@V?$allocator@U?$pair@QEAUggml_backend_buffer_type@@PEAUggml_context@@@std@@@4@$0A@@std@@@std@@IEAAPEAV?$_Tree_val@U?$_Tree_simple_types@U?$pair@QEAUggml_backend_buffer_type@@PEAUggml_context@@@std@@@std@@@2@XZ
	?_Get_scary@?$_Tree@V?$_Tmap_traits@PEAUggml_backend_buffer_type@@PEAUggml_context@@U?$less@PEAUggml_backend_buffer_type@@@std@@V?$allocator@U?$pair@QEAUggml_backend_buffer_type@@PEAUggml_context@@@std@@@4@$0A@@std@@@std@@IEBAPEBV?$_Tree_val@U?$_Tree_simple_types@U?$pair@QEAUggml_backend_buffer_type@@PEAUggml_context@@@std@@@std@@@2@XZ
	?_Get_scary@?$_Tree@V?$_Tmap_traits@V?$basic_string@DU?$char_traits@D@std@@V?$allocator@D@2@@std@@HU?$less@V?$basic_string@DU?$char_traits@D@std@@V?$allocator@D@2@@std@@@2@V?$allocator@U?$pair@$$CBV?$basic_string@DU?$char_traits@D@std@@V?$allocator@D@2@@std@@H@std@@@2@$0A@@std@@@std@@IEAAPEAV?$_Tree_val@U?$_Tree_simple_types@U?$pair@$$CBV?$basic_string@DU?$char_traits@D@std@@V?$allocator@D@2@@std@@H@std@@@std@@@2@XZ
	?_Get_scary@?$_Tree@V?$_Tmap_traits@V?$basic_string@DU?$char_traits@D@std@@V?$allocator@D@2@@std@@HU?$less@V?$basic_string@DU?$char_traits@D@std@@V?$allocator@D@2@@std@@@2@V?$allocator@U?$pair@$$CBV?$basic_string@DU?$char_traits@D@std@@V?$allocator@D@2@@std@@H@std@@@2@$0A@@std@@@std@@IEBAPEBV?$_Tree_val@U?$_Tree_simple_types@U?$pair@$$CBV?$basic_string@DU?$char_traits@D@std@@V?$allocator@D@2@@std@@H@std@@@std@@@2@XZ
	?_Get_scary@?$_Tree@V?$_Tmap_traits@V?$basic_string@DU?$char_traits@D@std@@V?$allocator@D@2@@std@@PEAUggml_tensor@@U?$less@V?$basic_string@DU?$char_traits@D@std@@V?$allocator@D@2@@std@@@2@V?$allocator@U?$pair@$$CBV?$basic_string@DU?$char_traits@D@std@@V?$allocator@D@2@@std@@PEAUggml_tensor@@@std@@@2@$0A@@std@@@std@@IEAAPEAV?$_Tree_val@U?$_Tree_simple_types@U?$pair@$$CBV?$basic_string@DU?$char_traits@D@std@@V?$allocator@D@2@@std@@PEAUggml_tensor@@@std@@@std@@@2@XZ
	?_Get_scary@?$_Tree@V?$_Tmap_traits@V?$basic_string@DU?$char_traits@D@std@@V?$allocator@D@2@@std@@PEAUggml_tensor@@U?$less@V?$basic_string@DU?$char_traits@D@std@@V?$allocator@D@2@@std@@@2@V?$allocator@U?$pair@$$CBV?$basic_string@DU?$char_traits@D@std@@V?$allocator@D@2@@std@@PEAUggml_tensor@@@std@@@2@$0A@@std@@@std@@IEBAPEBV?$_Tree_val@U?$_Tree_simple_types@U?$pair@$$CBV?$basic_string@DU?$char_traits@D@std@@V?$allocator@D@2@@std@@PEAUggml_tensor@@@std@@@std@@@2@XZ
	?_Get_scary@?$_Tree@V?$_Tmap_traits@W4parakeet_tensor@@PEBDU?$less@W4parakeet_tensor@@@std@@V?$allocator@U?$pair@$$CBW4parakeet_tensor@@PEBD@std@@@3@$0A@@std@@@std@@IEAAPEAV?$_Tree_val@U?$_Tree_simple_types@U?$pair@$$CBW4parakeet_tensor@@PEBD@std@@@std@@@2@XZ
	?_Get_scary@?$_Tree@V?$_Tmap_traits@W4parakeet_tensor@@PEBDU?$less@W4parakeet_tensor@@@std@@V?$allocator@U?$pair@$$CBW4parakeet_tensor@@PEBD@std@@@3@$0A@@std@@@std@@IEBAPEBV?$_Tree_val@U?$_Tree_simple_types@U?$pair@$$CBW4parakeet_tensor@@PEBD@std@@@std@@@2@XZ
	?_Get_scary@?$_Tree@V?$_Tmap_traits@W4parakeet_tensor@@W4ggml_op@@U?$less@W4parakeet_tensor@@@std@@V?$allocator@U?$pair@$$CBW4parakeet_tensor@@W4ggml_op@@@std@@@4@$0A@@std@@@std@@IEAAPEAV?$_Tree_val@U?$_Tree_simple_types@U?$pair@$$CBW4parakeet_tensor@@W4ggml_op@@@std@@@std@@@2@XZ
	?_Get_scary@?$_Tree@V?$_Tmap_traits@W4parakeet_tensor@@W4ggml_op@@U?$less@W4parakeet_tensor@@@std@@V?$allocator@U?$pair@$$CBW4parakeet_tensor@@W4ggml_op@@@std@@@4@$0A@@std@@@std@@IEBAPEBV?$_Tree_val@U?$_Tree_simple_types@U?$pair@$$CBW4parakeet_tensor@@W4ggml_op@@@std@@@std@@@2@XZ
	?_Getal@?$_Tree@V?$_Tmap_traits@HV?$basic_string@DU?$char_traits@D@std@@V?$allocator@D@2@@std@@U?$less@H@2@V?$allocator@U?$pair@$$CBHV?$basic_string@DU?$char_traits@D@std@@V?$allocator@D@2@@std@@@std@@@2@$0A@@std@@@std@@IEAAAEAV?$allocator@U?$_Tree_node@U?$pair@$$CBHV?$basic_string@DU?$char_traits@D@std@@V?$allocator@D@2@@std@@@std@@PEAX@std@@@2@XZ
	?_Getal@?$_Tree@V?$_Tmap_traits@HV?$basic_string@DU?$char_traits@D@std@@V?$allocator@D@2@@std@@U?$less@H@2@V?$allocator@U?$pair@$$CBHV?$basic_string@DU?$char_traits@D@std@@V?$allocator@D@2@@std@@@std@@@2@$0A@@std@@@std@@IEBAAEBV?$allocator@U?$_Tree_node@U?$pair@$$CBHV?$basic_string@DU?$char_traits@D@std@@V?$allocator@D@2@@std@@@std@@PEAX@std@@@2@XZ
	?_Getal@?$_Tree@V?$_Tmap_traits@PEAUggml_backend_buffer_type@@PEAUggml_context@@U?$less@PEAUggml_backend_buffer_type@@@std@@V?$allocator@U?$pair@QEAUggml_backend_buffer_type@@PEAUggml_context@@@std@@@4@$0A@@std@@@std@@IEAAAEAV?$allocator@U?$_Tree_node@U?$pair@QEAUggml_backend_buffer_type@@PEAUggml_context@@@std@@PEAX@std@@@2@XZ
	?_Getal@?$_Tree@V?$_Tmap_traits@PEAUggml_backend_buffer_type@@PEAUggml_context@@U?$less@PEAUggml_backend_buffer_type@@@std@@V?$allocator@U?$pair@QEAUggml_backend_buffer_type@@PEAUggml_context@@@std@@@4@$0A@@std@@@std@@IEBAAEBV?$allocator@U?$_Tree_node@U?$pair@QEAUggml_backend_buffer_type@@PEAUggml_context@@@std@@PEAX@std@@@2@XZ
	?_Getal@?$_Tree@V?$_Tmap_traits@V?$basic_string@DU?$char_traits@D@std@@V?$allocator@D@2@@std@@HU?$less@V?$basic_string@DU?$char_traits@D@std@@V?$allocator@D@2@@std@@@2@V?$allocator@U?$pair@$$CBV?$basic_string@DU?$char_traits@D@std@@V?$allocator@D@2@@std@@H@std@@@2@$0A@@std@@@std@@IEAAAEAV?$allocator@U?$_Tree_node@U?$pair@$$CBV?$basic_string@DU?$char_traits@D@std@@V?$allocator@D@2@@std@@H@std@@PEAX@std@@@2@XZ
	?_Getal@?$_Tree@V?$_Tmap_traits@V?$basic_string@DU?$char_traits@D@std@@V?$allocator@D@2@@std@@HU?$less@V?$basic_string@DU?$char_traits@D@std@@V?$allocator@D@2@@std@@@2@V?$allocator@U?$pair@$$CBV?$basic_string@DU?$char_traits@D@std@@V?$allocator@D@2@@std@@H@std@@@2@$0A@@std@@@std@@IEBAAEBV?$allocator@U?$_Tree_node@U?$pair@$$CBV?$basic_string@DU?$char_traits@D@std@@V?$allocator@D@2@@std@@H@std@@PEAX@std@@@2@XZ
	?_Getal@?$_Tree@V?$_Tmap_traits@V?$basic_string@DU?$char_traits@D@std@@V?$allocator@D@2@@std@@PEAUggml_tensor@@U?$less@V?$basic_string@DU?$char_traits@D@std@@V?$allocator@D@2@@std@@@2@V?$allocator@U?$pair@$$CBV?$basic_string@DU?$char_traits@D@std@@V?$allocator@D@2@@std@@PEAUggml_tensor@@@std@@@2@$0A@@std@@@std@@IEAAAEAV?$allocator@U?$_Tree_node@U?$pair@$$CBV?$basic_string@DU?$char_traits@D@std@@V?$allocator@D@2@@std@@PEAUggml_tensor@@@std@@PEAX@std@@@2@XZ
	?_Getal@?$_Tree@V?$_Tmap_traits@V?$basic_string@DU?$char_traits@D@std@@V?$allocator@D@2@@std@@PEAUggml_tensor@@U?$less@V?$basic_string@DU?$char_traits@D@std@@V?$allocator@D@2@@std@@@2@V?$allocator@U?$pair@$$CBV?$basic_string@DU?$char_traits@D@std@@V?$allocator@D@2@@std@@PEAUggml_tensor@@@std@@@2@$0A@@std@@@std@@IEBAAEBV?$allocator@U?$_Tree_node@U?$pair@$$CBV?$basic_string@DU?$char_traits@D@std@@V?$allocator@D@2@@std@@PEAUggml_tensor@@@std@@PEAX@std@@@2@XZ
	?_Getal@?$_Tree@V?$_Tmap_traits@W4parakeet_tensor@@PEBDU?$less@W4parakeet_tensor@@@std@@V?$allocator@U?$pair@$$CBW4parakeet_tensor@@PEBD@std@@@3@$0A@@std@@@std@@IEAAAEAV?$allocator@U?$_Tree_node@U?$pair@$$CBW4parakeet_tensor@@PEBD@std@@PEAX@std@@@2@XZ
	?_Getal@?$_Tree@V?$_Tmap_traits@W4parakeet_tensor@@PEBDU?$less@W4parakeet_tensor@@@std@@V?$allocator@U?$pair@$$CBW4parakeet_tensor@@PEBD@std@@@3@$0A@@std@@@std@@IEBAAEBV?$allocator@U?$_Tree_node@U?$pair@$$CBW4parakeet_tensor@@PEBD@std@@PEAX@std@@@2@XZ
	?_Getal@?$_Tree@V?$_Tmap_traits@W4parakeet_tensor@@W4ggml_op@@U?$less@W4parakeet_tensor@@@std@@V?$allocator@U?$pair@$$CBW4parakeet_tensor@@W4ggml_op@@@std@@@4@$0A@@std@@@std@@IEAAAEAV?$allocator@U?$_Tree_node@U?$pair@$$CBW4parakeet_tensor@@W4ggml_op@@@std@@PEAX@std@@@2@XZ
	?_Getal@?$_Tree@V?$_Tmap_traits@W4parakeet_tensor@@W4ggml_op@@U?$less@W4parakeet_tensor@@@std@@V?$allocator@U?$pair@$$CBW4parakeet_tensor@@W4ggml_op@@@std@@@4@$0A@@std@@@std@@IEBAAEBV?$allocator@U?$_Tree_node@U?$pair@$$CBW4parakeet_tensor@@W4ggml_op@@@std@@PEAX@std@@@2@XZ
	?_Getal@?$basic_string@DU?$char_traits@D@std@@V?$allocator@D@2@@std@@AEAAAEAV?$allocator@D@2@XZ
	?_Getal@?$basic_string@DU?$char_traits@D@std@@V?$allocator@D@2@@std@@AEBAAEBV?$allocator@D@2@XZ
	?_Getal@?$basic_string@_WU?$char_traits@_W@std@@V?$allocator@_W@2@@std@@AEAAAEAV?$allocator@_W@2@XZ
	?_Getal@?$basic_string@_WU?$char_traits@_W@std@@V?$allocator@_W@2@@std@@AEBAAEBV?$allocator@_W@2@XZ
	?_Getal@?$vector@DV?$allocator@D@std@@@std@@AEAAAEAV?$allocator@D@2@XZ
	?_Getal@?$vector@DV?$allocator@D@std@@@std@@AEBAAEBV?$allocator@D@2@XZ
	?_Getal@?$vector@EV?$allocator@E@std@@@std@@AEAAAEAV?$allocator@E@2@XZ
	?_Getal@?$vector@EV?$allocator@E@std@@@std@@AEBAAEBV?$allocator@E@2@XZ
	?_Getal@?$vector@HV?$allocator@H@std@@@std@@AEAAAEAV?$allocator@H@2@XZ
	?_Getal@?$vector@HV?$allocator@H@std@@@std@@AEBAAEBV?$allocator@H@2@XZ
	?_Getal@?$vector@IV?$allocator@I@std@@@std@@AEAAAEAV?$allocator@I@2@XZ
	?_Getal@?$vector@IV?$allocator@I@std@@@std@@AEBAAEBV?$allocator@I@2@XZ
	?_Getal@?$vector@MV?$allocator@M@std@@@std@@AEAAAEAV?$allocator@M@2@XZ
	?_Getal@?$vector@MV?$allocator@M@std@@@std@@AEBAAEBV?$allocator@M@2@XZ
	?_Getal@?$vector@PEAUggml_backend@@V?$allocator@PEAUggml_backend@@@std@@@std@@AEAAAEAV?$allocator@PEAUggml_backend@@@2@XZ
	?_Getal@?$vector@PEAUggml_backend@@V?$allocator@PEAUggml_backend@@@std@@@std@@AEBAAEBV?$allocator@PEAUggml_backend@@@2@XZ
	?_Getal@?$vector@PEAUggml_backend_buffer@@V?$allocator@PEAUggml_backend_buffer@@@std@@@std@@AEAAAEAV?$allocator@PEAUggml_backend_buffer@@@2@XZ
	?_Getal@?$vector@PEAUggml_backend_buffer@@V?$allocator@PEAUggml_backend_buffer@@@std@@@std@@AEBAAEBV?$allocator@PEAUggml_backend_buffer@@@2@XZ
	?_Getal@?$vector@PEAUggml_context@@V?$allocator@PEAUggml_context@@@std@@@std@@AEAAAEAV?$allocator@PEAUggml_context@@@2@XZ
	?_Getal@?$vector@PEAUggml_context@@V?$allocator@PEAUggml_context@@@std@@@std@@AEBAAEBV?$allocator@PEAUggml_context@@@2@XZ
	?_Getal@?$vector@U?$pair@PEAUggml_backend_device@@PEAUggml_backend_buffer_type@@@std@@V?$allocator@U?$pair@PEAUggml_backend_device@@PEAUggml_backend_buffer_type@@@std@@@2@@std@@AEAAAEAV?$allocator@U?$pair@PEAUggml_backend_device@@PEAUggml_backend_buffer_type@@@std@@@2@XZ
	?_Getal@?$vector@U?$pair@PEAUggml_backend_device@@PEAUggml_backend_buffer_type@@@std@@V?$allocator@U?$pair@PEAUggml_backend_device@@PEAUggml_backend_buffer_type@@@std@@@2@@std@@AEBAAEBV?$allocator@U?$pair@PEAUggml_backend_device@@PEAUggml_backend_buffer_type@@@std@@@2@XZ
	?_Getal@?$vector@Uparakeet_layer_encoder@@V?$allocator@Uparakeet_layer_encoder@@@std@@@std@@AEAAAEAV?$allocator@Uparakeet_layer_encoder@@@2@XZ
	?_Getal@?$vector@Uparakeet_layer_encoder@@V?$allocator@Uparakeet_layer_encoder@@@std@@@std@@AEBAAEBV?$allocator@Uparakeet_layer_encoder@@@2@XZ
	?_Getal@?$vector@Uparakeet_lsmt_layer@@V?$allocator@Uparakeet_lsmt_layer@@@std@@@std@@AEAAAEAV?$allocator@Uparakeet_lsmt_layer@@@2@XZ
	?_Getal@?$vector@Uparakeet_lsmt_layer@@V?$allocator@Uparakeet_lsmt_layer@@@std@@@std@@AEBAAEBV?$allocator@Uparakeet_lsmt_layer@@@2@XZ
	?_Getal@?$vector@Uparakeet_lstm_state_layer@@V?$allocator@Uparakeet_lstm_state_layer@@@std@@@std@@AEAAAEAV?$allocator@Uparakeet_lstm_state_layer@@@2@XZ
	?_Getal@?$vector@Uparakeet_lstm_state_layer@@V?$allocator@Uparakeet_lstm_state_layer@@@std@@@std@@AEBAAEBV?$allocator@Uparakeet_lstm_state_layer@@@2@XZ
	?_Getal@?$vector@Uparakeet_segment@@V?$allocator@Uparakeet_segment@@@std@@@std@@AEAAAEAV?$allocator@Uparakeet_segment@@@2@XZ
	?_Getal@?$vector@Uparakeet_segment@@V?$allocator@Uparakeet_segment@@@std@@@std@@AEBAAEBV?$allocator@Uparakeet_segment@@@2@XZ
	?_Getal@?$vector@Uparakeet_token_data@@V?$allocator@Uparakeet_token_data@@@std@@@std@@AEAAAEAV?$allocator@Uparakeet_token_data@@@2@XZ
	?_Getal@?$vector@Uparakeet_token_data@@V?$allocator@Uparakeet_token_data@@@std@@@std@@AEBAAEBV?$allocator@Uparakeet_token_data@@@2@XZ
	?_Getal@?$vector@Vthread@std@@V?$allocator@Vthread@std@@@2@@std@@AEAAAEAV?$allocator@Vthread@std@@@2@XZ
	?_Getal@?$vector@Vthread@std@@V?$allocator@Vthread@std@@@2@@std@@AEBAAEBV?$allocator@Vthread@std@@@2@XZ
	?_Getcomp@?$_Tree@V?$_Tmap_traits@HV?$basic_string@DU?$char_traits@D@std@@V?$allocator@D@2@@std@@U?$less@H@2@V?$allocator@U?$pair@$$CBHV?$basic_string@DU?$char_traits@D@std@@V?$allocator@D@2@@std@@@std@@@2@$0A@@std@@@std@@IEBAAEBU?$less@H@2@XZ
	?_Getcomp@?$_Tree@V?$_Tmap_traits@PEAUggml_backend_buffer_type@@PEAUggml_context@@U?$less@PEAUggml_backend_buffer_type@@@std@@V?$allocator@U?$pair@QEAUggml_backend_buffer_type@@PEAUggml_context@@@std@@@4@$0A@@std@@@std@@IEBAAEBU?$less@PEAUggml_backend_buffer_type@@@2@XZ
	?_Getcomp@?$_Tree@V?$_Tmap_traits@V?$basic_string@DU?$char_traits@D@std@@V?$allocator@D@2@@std@@HU?$less@V?$basic_string@DU?$char_traits@D@std@@V?$allocator@D@2@@std@@@2@V?$allocator@U?$pair@$$CBV?$basic_string@DU?$char_traits@D@std@@V?$allocator@D@2@@std@@H@std@@@2@$0A@@std@@@std@@IEBAAEBU?$less@V?$basic_string@DU?$char_traits@D@std@@V?$allocator@D@2@@std@@@2@XZ
	?_Getcomp@?$_Tree@V?$_Tmap_traits@V?$basic_string@DU?$char_traits@D@std@@V?$allocator@D@2@@std@@PEAUggml_tensor@@U?$less@V?$basic_string@DU?$char_traits@D@std@@V?$allocator@D@2@@std@@@2@V?$allocator@U?$pair@$$CBV?$basic_string@DU?$char_traits@D@std@@V?$allocator@D@2@@std@@PEAUggml_tensor@@@std@@@2@$0A@@std@@@std@@IEBAAEBU?$less@V?$basic_string@DU?$char_traits@D@std@@V?$allocator@D@2@@std@@@2@XZ
	?_Getcomp@?$_Tree@V?$_Tmap_traits@W4parakeet_tensor@@PEBDU?$less@W4parakeet_tensor@@@std@@V?$allocator@U?$pair@$$CBW4parakeet_tensor@@PEBD@std@@@3@$0A@@std@@@std@@IEBAAEBU?$less@W4parakeet_tensor@@@2@XZ
	?_Getcomp@?$_Tree@V?$_Tmap_traits@W4parakeet_tensor@@W4ggml_op@@U?$less@W4parakeet_tensor@@@std@@V?$allocator@U?$pair@$$CBW4parakeet_tensor@@W4ggml_op@@@std@@@4@$0A@@std@@@std@@IEBAAEBU?$less@W4parakeet_tensor@@@2@XZ
	?_Getfacet@locale@std@@QEBAPEBVfacet@12@_K@Z
	?_Getimpl@?$_Func_class@PEAUggml_cgraph@@$$V@std@@AEBAPEAV?$_Func_base@PEAUggml_cgraph@@$$V@2@XZ
	?_Init@?$basic_filebuf@DU?$char_traits@D@std@@@std@@IEAAXPEAU_iobuf@@W4_Initfl@12@@Z
	?_Init@?$wstring_convert@V?$codecvt_utf8@_W$0BAPPPP@$0A@@std@@_WV?$allocator@_W@2@V?$allocator@D@2@@std@@AEAAXPEBV?$codecvt_utf8@_W$0BAPPPP@$0A@@2@@Z
	?_Initcvt@?$basic_filebuf@DU?$char_traits@D@std@@@std@@IEAAXAEBV?$codecvt@DDU_Mbstatet@@@2@@Z
	?_Insert_node@?$_Tree_val@U?$_Tree_simple_types@U?$pair@$$CBHV?$basic_string@DU?$char_traits@D@std@@V?$allocator@D@2@@std@@@std@@@std@@@std@@QEAAPEAU?$_Tree_node@U?$pair@$$CBHV?$basic_string@DU?$char_traits@D@std@@V?$allocator@D@2@@std@@@std@@PEAX@2@U?$_Tree_id@PEAU?$_Tree_node@U?$pair@$$CBHV?$basic_string@DU?$char_traits@D@std@@V?$allocator@D@2@@std@@@std@@PEAX@std@@@2@QEAU32@@Z
	?_Insert_node@?$_Tree_val@U?$_Tree_simple_types@U?$pair@$$CBV?$basic_string@DU?$char_traits@D@std@@V?$allocator@D@2@@std@@H@std@@@std@@@std@@QEAAPEAU?$_Tree_node@U?$pair@$$CBV?$basic_string@DU?$char_traits@D@std@@V?$allocator@D@2@@std@@H@std@@PEAX@2@U?$_Tree_id@PEAU?$_Tree_node@U?$pair@$$CBV?$basic_string@DU?$char_traits@D@std@@V?$allocator@D@2@@std@@H@std@@PEAX@std@@@2@QEAU32@@Z
	?_Insert_node@?$_Tree_val@U?$_Tree_simple_types@U?$pair@$$CBV?$basic_string@DU?$char_traits@D@std@@V?$allocator@D@2@@std@@PEAUggml_tensor@@@std@@@std@@@std@@QEAAPEAU?$_Tree_node@U?$pair@$$CBV?$basic_string@DU?$char_traits@D@std@@V?$allocator@D@2@@std@@PEAUggml_tensor@@@std@@PEAX@2@U?$_Tree_id@PEAU?$_Tree_node@U?$pair@$$CBV?$basic_string@DU?$char_traits@D@std@@V?$allocator@D@2@@std@@PEAUggml_tensor@@@std@@PEAX@std@@@2@QEAU32@@Z
	?_Insert_node@?$_Tree_val@U?$_Tree_simple_types@U?$pair@$$CBW4parakeet_tensor@@PEBD@std@@@std@@@std@@QEAAPEAU?$_Tree_node@U?$pair@$$CBW4parakeet_tensor@@PEBD@std@@PEAX@2@U?$_Tree_id@PEAU?$_Tree_node@U?$pair@$$CBW4parakeet_tensor@@PEBD@std@@PEAX@std@@@2@QEAU32@@Z
	?_Insert_node@?$_Tree_val@U?$_Tree_simple_types@U?$pair@$$CBW4parakeet_tensor@@W4ggml_op@@@std@@@std@@@std@@QEAAPEAU?$_Tree_node@U?$pair@$$CBW4parakeet_tensor@@W4ggml_op@@@std@@PEAX@2@U?$_Tree_id@PEAU?$_Tree_node@U?$pair@$$CBW4parakeet_tensor@@W4ggml_op@@@std@@PEAX@std@@@2@QEAU32@@Z
	?_Insert_node@?$_Tree_val@U?$_Tree_simple_types@U?$pair@QEAUggml_backend_buffer_type@@PEAUggml_context@@@std@@@std@@@std@@QEAAPEAU?$_Tree_node@U?$pair@QEAUggml_backend_buffer_type@@PEAUggml_context@@@std@@PEAX@2@U?$_Tree_id@PEAU?$_Tree_node@U?$pair@QEAUggml_backend_buffer_type@@PEAUggml_context@@@std@@PEAX@std@@@2@QEAU32@@Z
	?_Is_constant_evaluated@std@@YA_NXZ
	?_Large_mode_engaged@?$_String_val@U?$_Simple_types@D@std@@@std@@QEBA_NXZ
	?_Large_mode_engaged@?$_String_val@U?$_Simple_types@_W@std@@@std@@QEBA_NXZ
	?_Local@?$_Func_class@PEAUggml_cgraph@@$$V@std@@AEBA_NXZ
	?_Lock@?$basic_filebuf@DU?$char_traits@D@std@@@std@@UEAAXXZ
	?_Lrotate@?$_Tree_val@U?$_Tree_simple_types@U?$pair@$$CBHV?$basic_string@DU?$char_traits@D@std@@V?$allocator@D@2@@std@@@std@@@std@@@std@@QEAAXPEAU?$_Tree_node@U?$pair@$$CBHV?$basic_string@DU?$char_traits@D@std@@V?$allocator@D@2@@std@@@std@@PEAX@2@@Z
	?_Lrotate@?$_Tree_val@U?$_Tree_simple_types@U?$pair@$$CBV?$basic_string@DU?$char_traits@D@std@@V?$allocator@D@2@@std@@H@std@@@std@@@std@@QEAAXPEAU?$_Tree_node@U?$pair@$$CBV?$basic_string@DU?$char_traits@D@std@@V?$allocator@D@2@@std@@H@std@@PEAX@2@@Z
	?_Lrotate@?$_Tree_val@U?$_Tree_simple_types@U?$pair@$$CBV?$basic_string@DU?$char_traits@D@std@@V?$allocator@D@2@@std@@PEAUggml_tensor@@@std@@@std@@@std@@QEAAXPEAU?$_Tree_node@U?$pair@$$CBV?$basic_string@DU?$char_traits@D@std@@V?$allocator@D@2@@std@@PEAUggml_tensor@@@std@@PEAX@2@@Z
	?_Lrotate@?$_Tree_val@U?$_Tree_simple_types@U?$pair@$$CBW4parakeet_tensor@@PEBD@std@@@std@@@std@@QEAAXPEAU?$_Tree_node@U?$pair@$$CBW4parakeet_tensor@@PEBD@std@@PEAX@2@@Z
	?_Lrotate@?$_Tree_val@U?$_Tree_simple_types@U?$pair@$$CBW4parakeet_tensor@@W4ggml_op@@@std@@@std@@@std@@QEAAXPEAU?$_Tree_node@U?$pair@$$CBW4parakeet_tensor@@W4ggml_op@@@std@@PEAX@2@@Z
	?_Lrotate@?$_Tree_val@U?$_Tree_simple_types@U?$pair@QEAUggml_backend_buffer_type@@PEAUggml_context@@@std@@@std@@@std@@QEAAXPEAU?$_Tree_node@U?$pair@QEAUggml_backend_buffer_type@@PEAUggml_context@@@std@@PEAX@2@@Z
	?_Maklocwcs@std@@YAPEA_WPEB_W@Z
	?_Max@?$_Tree_val@U?$_Tree_simple_types@U?$pair@$$CBW4parakeet_tensor@@PEBD@std@@@std@@@std@@SAPEAU?$_Tree_node@U?$pair@$$CBW4parakeet_tensor@@PEBD@std@@PEAX@2@PEAU32@@Z
	?_Max@?$_Tree_val@U?$_Tree_simple_types@U?$pair@$$CBW4parakeet_tensor@@W4ggml_op@@@std@@@std@@@std@@SAPEAU?$_Tree_node@U?$pair@$$CBW4parakeet_tensor@@W4ggml_op@@@std@@PEAX@2@PEAU32@@Z
	?_Min@?$_Tree_val@U?$_Tree_simple_types@U?$pair@$$CBW4parakeet_tensor@@PEBD@std@@@std@@@std@@SAPEAU?$_Tree_node@U?$pair@$$CBW4parakeet_tensor@@PEBD@std@@PEAX@2@PEAU32@@Z
	?_Min@?$_Tree_val@U?$_Tree_simple_types@U?$pair@$$CBW4parakeet_tensor@@W4ggml_op@@@std@@@std@@@std@@SAPEAU?$_Tree_node@U?$pair@$$CBW4parakeet_tensor@@W4ggml_op@@@std@@PEAX@2@PEAU32@@Z
	?_Min@?$_Tree_val@U?$_Tree_simple_types@U?$pair@QEAUggml_backend_buffer_type@@PEAUggml_context@@@std@@@std@@@std@@SAPEAU?$_Tree_node@U?$pair@QEAUggml_backend_buffer_type@@PEAUggml_context@@@std@@PEAX@2@PEAU32@@Z
	?_Myptr@?$_String_val@U?$_Simple_types@D@std@@@std@@QEAAPEADXZ
	?_Myptr@?$_String_val@U?$_Simple_types@D@std@@@std@@QEBAPEBDXZ
	?_Myptr@?$_String_val@U?$_Simple_types@_W@std@@@std@@QEAAPEA_WXZ
	?_Myptr@?$_String_val@U?$_Simple_types@_W@std@@@std@@QEBAPEB_WXZ
	?_Orphan_all@_Container_base0@std@@QEAAXXZ
	?_Orphan_range@?$vector@DV?$allocator@D@std@@@std@@AEBAXPEAD0@Z
	?_Orphan_range@?$vector@EV?$allocator@E@std@@@std@@AEBAXPEAE0@Z
	?_Orphan_range@?$vector@HV?$allocator@H@std@@@std@@AEBAXPEAH0@Z
	?_Orphan_range@?$vector@IV?$allocator@I@std@@@std@@AEBAXPEAI0@Z
	?_Orphan_range@?$vector@MV?$allocator@M@std@@@std@@AEBAXPEAM0@Z
	?_Orphan_range@?$vector@PEAUggml_backend@@V?$allocator@PEAUggml_backend@@@std@@@std@@AEBAXPEAPEAUggml_backend@@0@Z
	?_Orphan_range@?$vector@PEAUggml_backend_buffer@@V?$allocator@PEAUggml_backend_buffer@@@std@@@std@@AEBAXPEAPEAUggml_backend_buffer@@0@Z
	?_Orphan_range@?$vector@PEAUggml_context@@V?$allocator@PEAUggml_context@@@std@@@std@@AEBAXPEAPEAUggml_context@@0@Z
	?_Orphan_range@?$vector@U?$pair@PEAUggml_backend_device@@PEAUggml_backend_buffer_type@@@std@@V?$allocator@U?$pair@PEAUggml_backend_device@@PEAUggml_backend_buffer_type@@@std@@@2@@std@@AEBAXPEAU?$pair@PEAUggml_backend_device@@PEAUggml_backend_buffer_type@@@2@0@Z
	?_Orphan_range@?$vector@Uparakeet_layer_encoder@@V?$allocator@Uparakeet_layer_encoder@@@std@@@std@@AEBAXPEAUparakeet_layer_encoder@@0@Z
	?_Orphan_range@?$vector@Uparakeet_lsmt_layer@@V?$allocator@Uparakeet_lsmt_layer@@@std@@@std@@AEBAXPEAUparakeet_lsmt_layer@@0@Z
	?_Orphan_range@?$vector@Uparakeet_lstm_state_layer@@V?$allocator@Uparakeet_lstm_state_layer@@@std@@@std@@AEBAXPEAUparakeet_lstm_state_layer@@0@Z
	?_Orphan_range@?$vector@Uparakeet_segment@@V?$allocator@Uparakeet_segment@@@std@@@std@@AEBAXPEAUparakeet_segment@@0@Z
	?_Orphan_range@?$vector@Uparakeet_token_data@@V?$allocator@Uparakeet_token_data@@@std@@@std@@AEBAXPEAUparakeet_token_data@@0@Z
	?_Release@?$_Alloc_construct_ptr@V?$allocator@U?$_Tree_node@U?$pair@$$CBHV?$basic_string@DU?$char_traits@D@std@@V?$allocator@D@2@@std@@@std@@PEAX@std@@@std@@@std@@QEAAPEAU?$_Tree_node@U?$pair@$$CBHV?$basic_string@DU?$char_traits@D@std@@V?$allocator@D@2@@std@@@std@@PEAX@2@XZ
	?_Release@?$_Alloc_construct_ptr@V?$allocator@U?$_Tree_node@U?$pair@$$CBV?$basic_string@DU?$char_traits@D@std@@V?$allocator@D@2@@std@@H@std@@PEAX@std@@@std@@@std@@QEAAPEAU?$_Tree_node@U?$pair@$$CBV?$basic_string@DU?$char_traits@D@std@@V?$allocator@D@2@@std@@H@std@@PEAX@2@XZ
	?_Release@?$_Alloc_construct_ptr@V?$allocator@U?$_Tree_node@U?$pair@$$CBV?$basic_string@DU?$char_traits@D@std@@V?$allocator@D@2@@std@@PEAUggml_tensor@@@std@@PEAX@std@@@std@@@std@@QEAAPEAU?$_Tree_node@U?$pair@$$CBV?$basic_string@DU?$char_traits@D@std@@V?$allocator@D@2@@std@@PEAUggml_tensor@@@std@@PEAX@2@XZ
	?_Release@?$_Alloc_construct_ptr@V?$allocator@U?$_Tree_node@U?$pair@$$CBW4parakeet_tensor@@PEBD@std@@PEAX@std@@@std@@@std@@QEAAPEAU?$_Tree_node@U?$pair@$$CBW4parakeet_tensor@@PEBD@std@@PEAX@2@XZ
	?_Release@?$_Alloc_construct_ptr@V?$allocator@U?$_Tree_node@U?$pair@$$CBW4parakeet_tensor@@W4ggml_op@@@std@@PEAX@std@@@std@@@std@@QEAAPEAU?$_Tree_node@U?$pair@$$CBW4parakeet_tensor@@W4ggml_op@@@std@@PEAX@2@XZ
	?_Release@?$_Alloc_construct_ptr@V?$allocator@U?$_Tree_node@U?$pair@QEAUggml_backend_buffer_type@@PEAUggml_context@@@std@@PEAX@std@@@std@@@std@@QEAAPEAU?$_Tree_node@U?$pair@QEAUggml_backend_buffer_type@@PEAUggml_context@@@std@@PEAX@2@XZ
	?_Release@?$_Uninitialized_backout_al@V?$allocator@D@std@@@std@@QEAAPEADXZ
	?_Release@?$_Uninitialized_backout_al@V?$allocator@E@std@@@std@@QEAAPEAEXZ
	?_Release@?$_Uninitialized_backout_al@V?$allocator@H@std@@@std@@QEAAPEAHXZ
	?_Release@?$_Uninitialized_backout_al@V?$allocator@I@std@@@std@@QEAAPEAIXZ
	?_Release@?$_Uninitialized_backout_al@V?$allocator@M@std@@@std@@QEAAPEAMXZ
	?_Release@?$_Uninitialized_backout_al@V?$allocator@PEAUggml_backend@@@std@@@std@@QEAAPEAPEAUggml_backend@@XZ
	?_Release@?$_Uninitialized_backout_al@V?$allocator@PEAUggml_backend_buffer@@@std@@@std@@QEAAPEAPEAUggml_backend_buffer@@XZ
	?_Release@?$_Uninitialized_backout_al@V?$allocator@PEAUggml_context@@@std@@@std@@QEAAPEAPEAUggml_context@@XZ
	?_Release@?$_Uninitialized_backout_al@V?$allocator@U?$pair@PEAUggml_backend_device@@PEAUggml_backend_buffer_type@@@std@@@std@@@std@@QEAAPEAU?$pair@PEAUggml_backend_device@@PEAUggml_backend_buffer_type@@@2@XZ
	?_Release@?$_Uninitialized_backout_al@V?$allocator@Uparakeet_layer_encoder@@@std@@@std@@QEAAPEAUparakeet_layer_encoder@@XZ
	?_Release@?$_Uninitialized_backout_al@V?$allocator@Uparakeet_lsmt_layer@@@std@@@std@@QEAAPEAUparakeet_lsmt_layer@@XZ
	?_Release@?$_Uninitialized_backout_al@V?$allocator@Uparakeet_lstm_state_layer@@@std@@@std@@QEAAPEAUparakeet_lstm_state_layer@@XZ
	?_Release@?$_Uninitialized_backout_al@V?$allocator@Uparakeet_segment@@@std@@@std@@QEAAPEAUparakeet_segment@@XZ
	?_Release@?$_Uninitialized_backout_al@V?$allocator@Uparakeet_token_data@@@std@@@std@@QEAAPEAUparakeet_token_data@@XZ
	?_Release@?$_Uninitialized_backout_al@V?$allocator@Vthread@std@@@std@@@std@@QEAAPEAVthread@2@XZ
	?_Release@_Fake_proxy_ptr_impl@std@@QEAAXXZ
	?_Reset_back@?$basic_filebuf@DU?$char_traits@D@std@@@std@@AEAAXXZ
	?_Rrotate@?$_Tree_val@U?$_Tree_simple_types@U?$pair@$$CBHV?$basic_string@DU?$char_traits@D@std@@V?$allocator@D@2@@std@@@std@@@std@@@std@@QEAAXPEAU?$_Tree_node@U?$pair@$$CBHV?$basic_string@DU?$char_traits@D@std@@V?$allocator@D@2@@std@@@std@@PEAX@2@@Z
	?_Rrotate@?$_Tree_val@U?$_Tree_simple_types@U?$pair@$$CBV?$basic_string@DU?$char_traits@D@std@@V?$allocator@D@2@@std@@H@std@@@std@@@std@@QEAAXPEAU?$_Tree_node@U?$pair@$$CBV?$basic_string@DU?$char_traits@D@std@@V?$allocator@D@2@@std@@H@std@@PEAX@2@@Z
	?_Rrotate@?$_Tree_val@U?$_Tree_simple_types@U?$pair@$$CBV?$basic_string@DU?$char_traits@D@std@@V?$allocator@D@2@@std@@PEAUggml_tensor@@@std@@@std@@@std@@QEAAXPEAU?$_Tree_node@U?$pair@$$CBV?$basic_string@DU?$char_traits@D@std@@V?$allocator@D@2@@std@@PEAUggml_tensor@@@std@@PEAX@2@@Z
	?_Rrotate@?$_Tree_val@U?$_Tree_simple_types@U?$pair@$$CBW4parakeet_tensor@@PEBD@std@@@std@@@std@@QEAAXPEAU?$_Tree_node@U?$pair@$$CBW4parakeet_tensor@@PEBD@std@@PEAX@2@@Z
	?_Rrotate@?$_Tree_val@U?$_Tree_simple_types@U?$pair@$$CBW4parakeet_tensor@@W4ggml_op@@@std@@@std@@@std@@QEAAXPEAU?$_Tree_node@U?$pair@$$CBW4parakeet_tensor@@W4ggml_op@@@std@@PEAX@2@@Z
	?_Rrotate@?$_Tree_val@U?$_Tree_simple_types@U?$pair@QEAUggml_backend_buffer_type@@PEAUggml_context@@@std@@@std@@@std@@QEAAXPEAU?$_Tree_node@U?$pair@QEAUggml_backend_buffer_type@@PEAUggml_context@@@std@@PEAX@2@@Z
	?_Seek_to@?$_Vector_const_iterator@V?$_Vector_val@U?$_Simple_types@M@std@@@std@@@std@@QEAAXPEBM@Z
	?_Set@?$_Func_class@PEAUggml_cgraph@@$$V@std@@AEAAXPEAV?$_Func_base@PEAUggml_cgraph@@$$V@2@@Z
	?_Set_back@?$basic_filebuf@DU?$char_traits@D@std@@@std@@AEAAXXZ
	?_Swap_proxy_and_iterators@?$basic_string@DU?$char_traits@D@std@@V?$allocator@D@2@@std@@AEAAXAEAV12@@Z
	?_Swap_proxy_and_iterators@?$basic_string@_WU?$char_traits@_W@std@@V?$allocator@_W@2@@std@@AEAAXAEAV12@@Z
	?_Swap_proxy_and_iterators@_Container_base0@std@@QEAAXAEAU12@@Z
	?_Switch_to_buf@_Bxty@?$_String_val@U?$_Simple_types@D@std@@@std@@QEAAXXZ
	?_Switch_to_buf@_Bxty@?$_String_val@U?$_Simple_types@_W@std@@@std@@QEAAXXZ
	?_Take_contents@?$_Vector_val@U?$_Simple_types@PEAUggml_backend@@@std@@@std@@QEAAXAEAV12@@Z
	?_Take_contents@?$basic_string@DU?$char_traits@D@std@@V?$allocator@D@2@@std@@AEAAXAEAV12@@Z
	?_Take_contents@?$basic_string@_WU?$char_traits@_W@std@@V?$allocator@_W@2@@std@@AEAAXAEAV12@@Z
	?_Throw_bad_array_new_length@std@@YAXXZ
	?_Throw_bad_cast@std@@YAXXZ
	?_Throw_range_error@std@@YAXQEBD@Z
	?_Throw_tree_length_error@std@@YAXXZ
	?_Tidy@?$_Func_class@PEAUggml_cgraph@@$$V@std@@IEAAXXZ
	?_Tidy@?$vector@DV?$allocator@D@std@@@std@@AEAAXXZ
	?_Tidy@?$vector@EV?$allocator@E@std@@@std@@AEAAXXZ
	?_Tidy@?$vector@HV?$allocator@H@std@@@std@@AEAAXXZ
	?_Tidy@?$vector@IV?$allocator@I@std@@@std@@AEAAXXZ
	?_Tidy@?$vector@MV?$allocator@M@std@@@std@@AEAAXXZ
	?_Tidy@?$vector@PEAUggml_backend@@V?$allocator@PEAUggml_backend@@@std@@@std@@AEAAXXZ
	?_Tidy@?$vector@PEAUggml_backend_buffer@@V?$allocator@PEAUggml_backend_buffer@@@std@@@std@@AEAAXXZ
	?_Tidy@?$vector@PEAUggml_context@@V?$allocator@PEAUggml_context@@@std@@@std@@AEAAXXZ
	?_Tidy@?$vector@U?$pair@PEAUggml_backend_device@@PEAUggml_backend_buffer_type@@@std@@V?$allocator@U?$pair@PEAUggml_backend_device@@PEAUggml_backend_buffer_type@@@std@@@2@@std@@AEAAXXZ
	?_Tidy@?$vector@Uparakeet_layer_encoder@@V?$allocator@Uparakeet_layer_encoder@@@std@@@std@@AEAAXXZ
	?_Tidy@?$vector@Uparakeet_lsmt_layer@@V?$allocator@Uparakeet_lsmt_layer@@@std@@@std@@AEAAXXZ
	?_Tidy@?$vector@Uparakeet_lstm_state_layer@@V?$allocator@Uparakeet_lstm_state_layer@@@std@@@std@@AEAAXXZ
	?_Tidy@?$vector@Uparakeet_segment@@V?$allocator@Uparakeet_segment@@@std@@@std@@AEAAXXZ
	?_Tidy@?$vector@Uparakeet_token_data@@V?$allocator@Uparakeet_token_data@@@std@@@std@@AEAAXXZ
	?_Tidy@?$vector@Vthread@std@@V?$allocator@Vthread@std@@@2@@std@@AEAAXXZ
	?_Tidy_deallocate@?$basic_string@DU?$char_traits@D@std@@V?$allocator@D@2@@std@@AEAAXXZ
	?_Tidy_deallocate@?$basic_string@_WU?$char_traits@_W@std@@V?$allocator@_W@2@@std@@AEAAXXZ
	?_Unchecked_begin@?$_Tree@V?$_Tmap_traits@PEAUggml_backend_buffer_type@@PEAUggml_context@@U?$less@PEAUggml_backend_buffer_type@@@std@@V?$allocator@U?$pair@QEAUggml_backend_buffer_type@@PEAUggml_context@@@std@@@4@$0A@@std@@@std@@QEAA?AV?$_Tree_unchecked_iterator@V?$_Tree_val@U?$_Tree_simple_types@U?$pair@QEAUggml_backend_buffer_type@@PEAUggml_context@@@std@@@std@@@std@@@2@XZ
	?_Unchecked_begin@?$basic_string@DU?$char_traits@D@std@@V?$allocator@D@2@@std@@QEBAPEBDXZ
	?_Unchecked_begin@?$vector@IV?$allocator@I@std@@@std@@QEAAPEAIXZ
	?_Unchecked_begin@?$vector@PEAUggml_backend@@V?$allocator@PEAUggml_backend@@@std@@@std@@QEAAPEAPEAUggml_backend@@XZ
	?_Unchecked_begin@?$vector@PEAUggml_backend_buffer@@V?$allocator@PEAUggml_backend_buffer@@@std@@@std@@QEAAPEAPEAUggml_backend_buffer@@XZ
	?_Unchecked_begin@?$vector@PEAUggml_context@@V?$allocator@PEAUggml_context@@@std@@@std@@QEAAPEAPEAUggml_context@@XZ
	?_Unchecked_begin@?$vector@U?$pair@PEAUggml_backend_device@@PEAUggml_backend_buffer_type@@@std@@V?$allocator@U?$pair@PEAUggml_backend_device@@PEAUggml_backend_buffer_type@@@std@@@2@@std@@QEAAPEAU?$pair@PEAUggml_backend_device@@PEAUggml_backend_buffer_type@@@2@XZ
	?_Unchecked_end@?$_Tree@V?$_Tmap_traits@PEAUggml_backend_buffer_type@@PEAUggml_context@@U?$less@PEAUggml_backend_buffer_type@@@std@@V?$allocator@U?$pair@QEAUggml_backend_buffer_type@@PEAUggml_context@@@std@@@4@$0A@@std@@@std@@QEBA?AU_Default_sentinel@2@XZ
	?_Unchecked_end@?$basic_string@DU?$char_traits@D@std@@V?$allocator@D@2@@std@@QEBAPEBDXZ
	?_Unchecked_end@?$vector@IV?$allocator@I@std@@@std@@QEAAPEAIXZ
	?_Unchecked_end@?$vector@PEAUggml_backend@@V?$allocator@PEAUggml_backend@@@std@@@std@@QEAAPEAPEAUggml_backend@@XZ
	?_Unchecked_end@?$vector@PEAUggml_backend_buffer@@V?$allocator@PEAUggml_backend_buffer@@@std@@@std@@QEAAPEAPEAUggml_backend_buffer@@XZ
	?_Unchecked_end@?$vector@PEAUggml_context@@V?$allocator@PEAUggml_context@@@std@@@std@@QEAAPEAPEAUggml_context@@XZ
	?_Unchecked_end@?$vector@U?$pair@PEAUggml_backend_device@@PEAUggml_backend_buffer_type@@@std@@V?$allocator@U?$pair@PEAUggml_backend_device@@PEAUggml_backend_buffer_type@@@std@@@2@@std@@QEAAPEAU?$pair@PEAUggml_backend_device@@PEAUggml_backend_buffer_type@@@2@XZ
	?_Unlock@?$basic_filebuf@DU?$char_traits@D@std@@@std@@UEAAXXZ
	?_Unwrapped@?$_Vector_iterator@V?$_Vector_val@U?$_Simple_types@M@std@@@std@@@std@@QEBAPEAMXZ
	?_Verify_offset@?$_Vector_const_iterator@V?$_Vector_val@U?$_Simple_types@M@std@@@std@@@std@@QEBAX_J@Z
	?_Xlen_string@std@@YAXXZ
	?_Xlength@?$vector@DV?$allocator@D@std@@@std@@CAXXZ
	?_Xlength@?$vector@EV?$allocator@E@std@@@std@@CAXXZ
	?_Xlength@?$vector@HV?$allocator@H@std@@@std@@CAXXZ
	?_Xlength@?$vector@IV?$allocator@I@std@@@std@@CAXXZ
	?_Xlength@?$vector@MV?$allocator@M@std@@@std@@CAXXZ
	?_Xlength@?$vector@PEAUggml_backend@@V?$allocator@PEAUggml_backend@@@std@@@std@@CAXXZ
	?_Xlength@?$vector@PEAUggml_backend_buffer@@V?$allocator@PEAUggml_backend_buffer@@@std@@@std@@CAXXZ
	?_Xlength@?$vector@PEAUggml_context@@V?$allocator@PEAUggml_context@@@std@@@std@@CAXXZ
	?_Xlength@?$vector@U?$pair@PEAUggml_backend_device@@PEAUggml_backend_buffer_type@@@std@@V?$allocator@U?$pair@PEAUggml_backend_device@@PEAUggml_backend_buffer_type@@@std@@@2@@std@@CAXXZ
	?_Xlength@?$vector@Uparakeet_layer_encoder@@V?$allocator@Uparakeet_layer_encoder@@@std@@@std@@CAXXZ
	?_Xlength@?$vector@Uparakeet_lsmt_layer@@V?$allocator@Uparakeet_lsmt_layer@@@std@@@std@@CAXXZ
	?_Xlength@?$vector@Uparakeet_lstm_state_layer@@V?$allocator@Uparakeet_lstm_state_layer@@@std@@@std@@CAXXZ
	?_Xlength@?$vector@Uparakeet_segment@@V?$allocator@Uparakeet_segment@@@std@@@std@@CAXXZ
	?_Xlength@?$vector@Uparakeet_token_data@@V?$allocator@Uparakeet_token_data@@@std@@@std@@CAXXZ
	?_Xlength@?$vector@Vthread@std@@V?$allocator@Vthread@std@@@2@@std@@CAXXZ
	?_Xran@?$_String_val@U?$_Simple_types@D@std@@@std@@SAXXZ
	?allocate@?$allocator@D@std@@QEAAPEAD_K@Z
	?allocate@?$allocator@E@std@@QEAAPEAE_K@Z
	?allocate@?$allocator@H@std@@QEAAPEAH_K@Z
	?allocate@?$allocator@I@std@@QEAAPEAI_K@Z
	?allocate@?$allocator@M@std@@QEAAPEAM_K@Z
	?allocate@?$allocator@PEAUggml_backend@@@std@@QEAAPEAPEAUggml_backend@@_K@Z
	?allocate@?$allocator@PEAUggml_backend_buffer@@@std@@QEAAPEAPEAUggml_backend_buffer@@_K@Z
	?allocate@?$allocator@PEAUggml_context@@@std@@QEAAPEAPEAUggml_context@@_K@Z
	?allocate@?$allocator@U?$_Tree_node@U?$pair@$$CBHV?$basic_string@DU?$char_traits@D@std@@V?$allocator@D@2@@std@@@std@@PEAX@std@@@std@@QEAAPEAU?$_Tree_node@U?$pair@$$CBHV?$basic_string@DU?$char_traits@D@std@@V?$allocator@D@2@@std@@@std@@PEAX@2@_K@Z
	?allocate@?$allocator@U?$_Tree_node@U?$pair@$$CBV?$basic_string@DU?$char_traits@D@std@@V?$allocator@D@2@@std@@H@std@@PEAX@std@@@std@@QEAAPEAU?$_Tree_node@U?$pair@$$CBV?$basic_string@DU?$char_traits@D@std@@V?$allocator@D@2@@std@@H@std@@PEAX@2@_K@Z
	?allocate@?$allocator@U?$_Tree_node@U?$pair@$$CBV?$basic_string@DU?$char_traits@D@std@@V?$allocator@D@2@@std@@PEAUggml_tensor@@@std@@PEAX@std@@@std@@QEAAPEAU?$_Tree_node@U?$pair@$$CBV?$basic_string@DU?$char_traits@D@std@@V?$allocator@D@2@@std@@PEAUggml_tensor@@@std@@PEAX@2@_K@Z
	?allocate@?$allocator@U?$_Tree_node@U?$pair@$$CBW4parakeet_tensor@@PEBD@std@@PEAX@std@@@std@@QEAAPEAU?$_Tree_node@U?$pair@$$CBW4parakeet_tensor@@PEBD@std@@PEAX@2@_K@Z
	?allocate@?$allocator@U?$_Tree_node@U?$pair@$$CBW4parakeet_tensor@@W4ggml_op@@@std@@PEAX@std@@@std@@QEAAPEAU?$_Tree_node@U?$pair@$$CBW4parakeet_tensor@@W4ggml_op@@@std@@PEAX@2@_K@Z
	?allocate@?$allocator@U?$_Tree_node@U?$pair@QEAUggml_backend_buffer_type@@PEAUggml_context@@@std@@PEAX@std@@@std@@QEAAPEAU?$_Tree_node@U?$pair@QEAUggml_backend_buffer_type@@PEAUggml_context@@@std@@PEAX@2@_K@Z
	?allocate@?$allocator@U?$pair@PEAUggml_backend_device@@PEAUggml_backend_buffer_type@@@std@@@std@@QEAAPEAU?$pair@PEAUggml_backend_device@@PEAUggml_backend_buffer_type@@@2@_K@Z
	?allocate@?$allocator@Uparakeet_layer_encoder@@@std@@QEAAPEAUparakeet_layer_encoder@@_K@Z
	?allocate@?$allocator@Uparakeet_lsmt_layer@@@std@@QEAAPEAUparakeet_lsmt_layer@@_K@Z
	?allocate@?$allocator@Uparakeet_lstm_state_layer@@@std@@QEAAPEAUparakeet_lstm_state_layer@@_K@Z
	?allocate@?$allocator@Uparakeet_segment@@@std@@QEAAPEAUparakeet_segment@@_K@Z
	?allocate@?$allocator@Uparakeet_token_data@@@std@@QEAAPEAUparakeet_token_data@@_K@Z
	?allocate@?$allocator@Vthread@std@@@std@@QEAAPEAVthread@2@_K@Z
	?allocate@?$allocator@_W@std@@QEAAPEA_W_K@Z
	?append@?$basic_string@DU?$char_traits@D@std@@V?$allocator@D@2@@std@@QEAAAEAV12@AEBV12@@Z
	?append@?$basic_string@DU?$char_traits@D@std@@V?$allocator@D@2@@std@@QEAAAEAV12@QEBD@Z
	?append@?$basic_string@_WU?$char_traits@_W@std@@V?$allocator@_W@2@@std@@QEAAAEAV12@QEB_W_K@Z
	?append@?$basic_string@_WU?$char_traits@_W@std@@V?$allocator@_W@2@@std@@QEAAAEAV12@_K_W@Z
	?assign@?$_Narrow_char_traits@DH@std@@SAXAEADAEBD@Z
	?assign@?$_WChar_traits@_W@std@@SAPEA_WQEA_W_K_W@Z
	?assign@?$_WChar_traits@_W@std@@SAXAEA_WAEB_W@Z
	?assign@?$basic_string@DU?$char_traits@D@std@@V?$allocator@D@2@@std@@QEAAAEAV12@QEBD@Z
	?assign@?$basic_string@DU?$char_traits@D@std@@V?$allocator@D@2@@std@@QEAAAEAV12@QEBD_K@Z
	?at@?$map@HV?$basic_string@DU?$char_traits@D@std@@V?$allocator@D@2@@std@@U?$less@H@2@V?$allocator@U?$pair@$$CBHV?$basic_string@DU?$char_traits@D@std@@V?$allocator@D@2@@std@@@std@@@2@@std@@QEAAAEAV?$basic_string@DU?$char_traits@D@std@@V?$allocator@D@2@@2@AEBH@Z
	?at@?$map@V?$basic_string@DU?$char_traits@D@std@@V?$allocator@D@2@@std@@HU?$less@V?$basic_string@DU?$char_traits@D@std@@V?$allocator@D@2@@std@@@2@V?$allocator@U?$pair@$$CBV?$basic_string@DU?$char_traits@D@std@@V?$allocator@D@2@@std@@H@std@@@2@@std@@QEAAAEAHAEBV?$basic_string@DU?$char_traits@D@std@@V?$allocator@D@2@@2@@Z
	?at@?$map@W4parakeet_tensor@@PEBDU?$less@W4parakeet_tensor@@@std@@V?$allocator@U?$pair@$$CBW4parakeet_tensor@@PEBD@std@@@3@@std@@QEBAAEBQEBDAEBW4parakeet_tensor@@@Z
	?at@?$map@W4parakeet_tensor@@W4ggml_op@@U?$less@W4parakeet_tensor@@@std@@V?$allocator@U?$pair@$$CBW4parakeet_tensor@@W4ggml_op@@@std@@@4@@std@@QEBAAEBW4ggml_op@@AEBW4parakeet_tensor@@@Z
	?begin@?$initializer_list@H@std@@QEBAPEBHXZ
	?begin@?$initializer_list@U?$pair@$$CBW4parakeet_tensor@@PEBD@std@@@std@@QEBAPEBU?$pair@$$CBW4parakeet_tensor@@PEBD@2@XZ
	?begin@?$initializer_list@U?$pair@$$CBW4parakeet_tensor@@W4ggml_op@@@std@@@std@@QEBAPEBU?$pair@$$CBW4parakeet_tensor@@W4ggml_op@@@2@XZ
	?begin@?$vector@MV?$allocator@M@std@@@std@@QEAA?AV?$_Vector_iterator@V?$_Vector_val@U?$_Simple_types@M@std@@@std@@@2@XZ
	?c_str@?$basic_string@DU?$char_traits@D@std@@V?$allocator@D@2@@std@@QEBAPEBDXZ
	?c_str@?$basic_string@_WU?$char_traits@_W@std@@V?$allocator@_W@2@@std@@QEBAPEB_WXZ
	?capacity@?$vector@DV?$allocator@D@std@@@std@@QEBA_KXZ
	?capacity@?$vector@EV?$allocator@E@std@@@std@@QEBA_KXZ
	?capacity@?$vector@HV?$allocator@H@std@@@std@@QEBA_KXZ
	?capacity@?$vector@IV?$allocator@I@std@@@std@@QEBA_KXZ
	?capacity@?$vector@MV?$allocator@M@std@@@std@@QEBA_KXZ
	?capacity@?$vector@PEAUggml_backend@@V?$allocator@PEAUggml_backend@@@std@@@std@@QEBA_KXZ
	?capacity@?$vector@PEAUggml_backend_buffer@@V?$allocator@PEAUggml_backend_buffer@@@std@@@std@@QEBA_KXZ
	?capacity@?$vector@PEAUggml_context@@V?$allocator@PEAUggml_context@@@std@@@std@@QEBA_KXZ
	?capacity@?$vector@U?$pair@PEAUggml_backend_device@@PEAUggml_backend_buffer_type@@@std@@V?$allocator@U?$pair@PEAUggml_backend_device@@PEAUggml_backend_buffer_type@@@std@@@2@@std@@QEBA_KXZ
	?capacity@?$vector@Uparakeet_layer_encoder@@V?$allocator@Uparakeet_layer_encoder@@@std@@@std@@QEBA_KXZ
	?capacity@?$vector@Uparakeet_lsmt_layer@@V?$allocator@Uparakeet_lsmt_layer@@@std@@@std@@QEBA_KXZ
	?capacity@?$vector@Uparakeet_lstm_state_layer@@V?$allocator@Uparakeet_lstm_state_layer@@@std@@@std@@QEBA_KXZ
	?capacity@?$vector@Uparakeet_segment@@V?$allocator@Uparakeet_segment@@@std@@@std@@QEBA_KXZ
	?capacity@?$vector@Uparakeet_token_data@@V?$allocator@Uparakeet_token_data@@@std@@@std@@QEBA_KXZ
	?clear@?$vector@EV?$allocator@E@std@@@std@@QEAAXXZ
	?clear@?$vector@HV?$allocator@H@std@@@std@@QEAAXXZ
	?clear@?$vector@Uparakeet_segment@@V?$allocator@Uparakeet_segment@@@std@@@std@@QEAAXXZ
	?clear@?$vector@Uparakeet_token_data@@V?$allocator@Uparakeet_token_data@@@std@@@std@@QEAAXXZ
	?close@?$basic_filebuf@DU?$char_traits@D@std@@@std@@QEAAPEAV12@XZ
	?close@?$basic_ifstream@DU?$char_traits@D@std@@@std@@QEAAXXZ
	?close@?$basic_ofstream@DU?$char_traits@D@std@@@std@@QEAAXXZ
	?compare@?$_Narrow_char_traits@DH@std@@SAHQEBD0_K@Z
	?compare@?$basic_string@DU?$char_traits@D@std@@V?$allocator@D@2@@std@@QEBAHAEBV12@@Z
	?compare@?$basic_string@DU?$char_traits@D@std@@V?$allocator@D@2@@std@@QEBAH_K0AEBV12@@Z
	?copy@?$_Char_traits@DH@std@@SAPEADQEADQEBD_K@Z
	?copy@?$_Char_traits@_WG@std@@SAPEA_WQEA_WQEB_W_K@Z
	?data@?$basic_string@DU?$char_traits@D@std@@V?$allocator@D@2@@std@@QEBAPEBDXZ
	?data@?$vector@DV?$allocator@D@std@@@std@@QEAAPEADXZ
	?data@?$vector@EV?$allocator@E@std@@@std@@QEAAPEAEXZ
	?data@?$vector@IV?$allocator@I@std@@@std@@QEAAPEAIXZ
	?data@?$vector@MV?$allocator@M@std@@@std@@QEAAPEAMXZ
	?data@?$vector@MV?$allocator@M@std@@@std@@QEBAPEBMXZ
	?data@?$vector@PEAUggml_backend@@V?$allocator@PEAUggml_backend@@@std@@@std@@QEAAPEAPEAUggml_backend@@XZ
	?deallocate@?$_Default_allocator_traits@V?$allocator@U?$_Tree_node@U?$pair@$$CBHV?$basic_string@DU?$char_traits@D@std@@V?$allocator@D@2@@std@@@std@@PEAX@std@@@std@@@std@@SAXAEAV?$allocator@U?$_Tree_node@U?$pair@$$CBHV?$basic_string@DU?$char_traits@D@std@@V?$allocator@D@2@@std@@@std@@PEAX@std@@@2@QEAU?$_Tree_node@U?$pair@$$CBHV?$basic_string@DU?$char_traits@D@std@@V?$allocator@D@2@@std@@@std@@PEAX@2@_K@Z
	?deallocate@?$_Default_allocator_traits@V?$allocator@U?$_Tree_node@U?$pair@$$CBV?$basic_string@DU?$char_traits@D@std@@V?$allocator@D@2@@std@@H@std@@PEAX@std@@@std@@@std@@SAXAEAV?$allocator@U?$_Tree_node@U?$pair@$$CBV?$basic_string@DU?$char_traits@D@std@@V?$allocator@D@2@@std@@H@std@@PEAX@std@@@2@QEAU?$_Tree_node@U?$pair@$$CBV?$basic_string@DU?$char_traits@D@std@@V?$allocator@D@2@@std@@H@std@@PEAX@2@_K@Z
	?deallocate@?$_Default_allocator_traits@V?$allocator@U?$_Tree_node@U?$pair@$$CBV?$basic_string@DU?$char_traits@D@std@@V?$allocator@D@2@@std@@PEAUggml_tensor@@@std@@PEAX@std@@@std@@@std@@SAXAEAV?$allocator@U?$_Tree_node@U?$pair@$$CBV?$basic_string@DU?$char_traits@D@std@@V?$allocator@D@2@@std@@PEAUggml_tensor@@@std@@PEAX@std@@@2@QEAU?$_Tree_node@U?$pair@$$CBV?$basic_string@DU?$char_traits@D@std@@V?$allocator@D@2@@std@@PEAUggml_tensor@@@std@@PEAX@2@_K@Z
	?deallocate@?$_Default_allocator_traits@V?$allocator@U?$_Tree_node@U?$pair@$$CBW4parakeet_tensor@@PEBD@std@@PEAX@std@@@std@@@std@@SAXAEAV?$allocator@U?$_Tree_node@U?$pair@$$CBW4parakeet_tensor@@PEBD@std@@PEAX@std@@@2@QEAU?$_Tree_node@U?$pair@$$CBW4parakeet_tensor@@PEBD@std@@PEAX@2@_K@Z
	?deallocate@?$_Default_allocator_traits@V?$allocator@U?$_Tree_node@U?$pair@$$CBW4parakeet_tensor@@W4ggml_op@@@std@@PEAX@std@@@std@@@std@@SAXAEAV?$allocator@U?$_Tree_node@U?$pair@$$CBW4parakeet_tensor@@W4ggml_op@@@std@@PEAX@std@@@2@QEAU?$_Tree_node@U?$pair@$$CBW4parakeet_tensor@@W4ggml_op@@@std@@PEAX@2@_K@Z
	?deallocate@?$_Default_allocator_traits@V?$allocator@U?$_Tree_node@U?$pair@QEAUggml_backend_buffer_type@@PEAUggml_context@@@std@@PEAX@std@@@std@@@std@@SAXAEAV?$allocator@U?$_Tree_node@U?$pair@QEAUggml_backend_buffer_type@@PEAUggml_context@@@std@@PEAX@std@@@2@QEAU?$_Tree_node@U?$pair@QEAUggml_backend_buffer_type@@PEAUggml_context@@@std@@PEAX@2@_K@Z
	?deallocate@?$allocator@D@std@@QEAAXQEAD_K@Z
	?deallocate@?$allocator@E@std@@QEAAXQEAE_K@Z
	?deallocate@?$allocator@H@std@@QEAAXQEAH_K@Z
	?deallocate@?$allocator@I@std@@QEAAXQEAI_K@Z
	?deallocate@?$allocator@M@std@@QEAAXQEAM_K@Z
	?deallocate@?$allocator@PEAUggml_backend@@@std@@QEAAXQEAPEAUggml_backend@@_K@Z
	?deallocate@?$allocator@PEAUggml_backend_buffer@@@std@@QEAAXQEAPEAUggml_backend_buffer@@_K@Z
	?deallocate@?$allocator@PEAUggml_context@@@std@@QEAAXQEAPEAUggml_context@@_K@Z
	?deallocate@?$allocator@U?$_Tree_node@U?$pair@$$CBHV?$basic_string@DU?$char_traits@D@std@@V?$allocator@D@2@@std@@@std@@PEAX@std@@@std@@QEAAXQEAU?$_Tree_node@U?$pair@$$CBHV?$basic_string@DU?$char_traits@D@std@@V?$allocator@D@2@@std@@@std@@PEAX@2@_K@Z
	?deallocate@?$allocator@U?$_Tree_node@U?$pair@$$CBV?$basic_string@DU?$char_traits@D@std@@V?$allocator@D@2@@std@@H@std@@PEAX@std@@@std@@QEAAXQEAU?$_Tree_node@U?$pair@$$CBV?$basic_string@DU?$char_traits@D@std@@V?$allocator@D@2@@std@@H@std@@PEAX@2@_K@Z
	?deallocate@?$allocator@U?$_Tree_node@U?$pair@$$CBV?$basic_string@DU?$char_traits@D@std@@V?$allocator@D@2@@std@@PEAUggml_tensor@@@std@@PEAX@std@@@std@@QEAAXQEAU?$_Tree_node@U?$pair@$$CBV?$basic_string@DU?$char_traits@D@std@@V?$allocator@D@2@@std@@PEAUggml_tensor@@@std@@PEAX@2@_K@Z
	?deallocate@?$allocator@U?$_Tree_node@U?$pair@$$CBW4parakeet_tensor@@PEBD@std@@PEAX@std@@@std@@QEAAXQEAU?$_Tree_node@U?$pair@$$CBW4parakeet_tensor@@PEBD@std@@PEAX@2@_K@Z
	?deallocate@?$allocator@U?$_Tree_node@U?$pair@$$CBW4parakeet_tensor@@W4ggml_op@@@std@@PEAX@std@@@std@@QEAAXQEAU?$_Tree_node@U?$pair@$$CBW4parakeet_tensor@@W4ggml_op@@@std@@PEAX@2@_K@Z
	?deallocate@?$allocator@U?$_Tree_node@U?$pair@QEAUggml_backend_buffer_type@@PEAUggml_context@@@std@@PEAX@std@@@std@@QEAAXQEAU?$_Tree_node@U?$pair@QEAUggml_backend_buffer_type@@PEAUggml_context@@@std@@PEAX@2@_K@Z
	?deallocate@?$allocator@U?$pair@PEAUggml_backend_device@@PEAUggml_backend_buffer_type@@@std@@@std@@QEAAXQEAU?$pair@PEAUggml_backend_device@@PEAUggml_backend_buffer_type@@@2@_K@Z
	?deallocate@?$allocator@Uparakeet_layer_encoder@@@std@@QEAAXQEAUparakeet_layer_encoder@@_K@Z
	?deallocate@?$allocator@Uparakeet_lsmt_layer@@@std@@QEAAXQEAUparakeet_lsmt_layer@@_K@Z
	?deallocate@?$allocator@Uparakeet_lstm_state_layer@@@std@@QEAAXQEAUparakeet_lstm_state_layer@@_K@Z
	?deallocate@?$allocator@Uparakeet_segment@@@std@@QEAAXQEAUparakeet_segment@@_K@Z
	?deallocate@?$allocator@Uparakeet_token_data@@@std@@QEAAXQEAUparakeet_token_data@@_K@Z
	?deallocate@?$allocator@Vthread@std@@@std@@QEAAXQEAVthread@2@_K@Z
	?deallocate@?$allocator@_W@std@@QEAAXQEA_W_K@Z
	?do_always_noconv@?$codecvt_utf8@_W$0BAPPPP@$0A@@std@@MEBA_NXZ
	?do_encoding@?$codecvt_utf8@_W$0BAPPPP@$0A@@std@@MEBAHXZ
	?do_in@?$codecvt_utf8@_W$0BAPPPP@$0A@@std@@MEBAHAEAU_Mbstatet@@PEBD1AEAPEBDPEA_W3AEAPEA_W@Z
	?do_length@?$codecvt_utf8@_W$0BAPPPP@$0A@@std@@MEBAHAEAU_Mbstatet@@PEBD1_K@Z
	?do_max_length@?$codecvt_utf8@_W$0BAPPPP@$0A@@std@@MEBAHXZ
	?do_out@?$codecvt_utf8@_W$0BAPPPP@$0A@@std@@MEBAHAEAU_Mbstatet@@PEB_W1AEAPEB_WPEAD3AEAPEAD@Z
	?do_unshift@?$codecvt_utf8@_W$0BAPPPP@$0A@@std@@MEBAHAEAU_Mbstatet@@PEAD1AEAPEAD@Z
	?empty@?$basic_string@DU?$char_traits@D@std@@V?$allocator@D@2@@std@@QEBA_NXZ
	?empty@?$vector@MV?$allocator@M@std@@@std@@QEBA_NXZ
	?empty@?$vector@PEAUggml_backend@@V?$allocator@PEAUggml_backend@@@std@@@std@@QEBA_NXZ
	?empty@?$vector@U?$pair@PEAUggml_backend_device@@PEAUggml_backend_buffer_type@@@std@@V?$allocator@U?$pair@PEAUggml_backend_device@@PEAUggml_backend_buffer_type@@@std@@@2@@std@@QEBA_NXZ
	?empty@?$vector@Uparakeet_token_data@@V?$allocator@Uparakeet_token_data@@@std@@@std@@QEBA_NXZ
	?end@?$_Tree@V?$_Tmap_traits@PEAUggml_backend_buffer_type@@PEAUggml_context@@U?$less@PEAUggml_backend_buffer_type@@@std@@V?$allocator@U?$pair@QEAUggml_backend_buffer_type@@PEAUggml_context@@@std@@@4@$0A@@std@@@std@@QEAA?AV?$_Tree_iterator@V?$_Tree_val@U?$_Tree_simple_types@U?$pair@QEAUggml_backend_buffer_type@@PEAUggml_context@@@std@@@std@@@std@@@2@XZ
	?end@?$_Tree@V?$_Tmap_traits@V?$basic_string@DU?$char_traits@D@std@@V?$allocator@D@2@@std@@HU?$less@V?$basic_string@DU?$char_traits@D@std@@V?$allocator@D@2@@std@@@2@V?$allocator@U?$pair@$$CBV?$basic_string@DU?$char_traits@D@std@@V?$allocator@D@2@@std@@H@std@@@2@$0A@@std@@@std@@QEAA?AV?$_Tree_iterator@V?$_Tree_val@U?$_Tree_simple_types@U?$pair@$$CBV?$basic_string@DU?$char_traits@D@std@@V?$allocator@D@2@@std@@H@std@@@std@@@std@@@2@XZ
	?end@?$_Tree@V?$_Tmap_traits@V?$basic_string@DU?$char_traits@D@std@@V?$allocator@D@2@@std@@HU?$less@V?$basic_string@DU?$char_traits@D@std@@V?$allocator@D@2@@std@@@2@V?$allocator@U?$pair@$$CBV?$basic_string@DU?$char_traits@D@std@@V?$allocator@D@2@@std@@H@std@@@2@$0A@@std@@@std@@QEBA?AV?$_Tree_const_iterator@V?$_Tree_val@U?$_Tree_simple_types@U?$pair@$$CBV?$basic_string@DU?$char_traits@D@std@@V?$allocator@D@2@@std@@H@std@@@std@@@std@@@2@XZ
	?end@?$_Tree@V?$_Tmap_traits@V?$basic_string@DU?$char_traits@D@std@@V?$allocator@D@2@@std@@PEAUggml_tensor@@U?$less@V?$basic_string@DU?$char_traits@D@std@@V?$allocator@D@2@@std@@@2@V?$allocator@U?$pair@$$CBV?$basic_string@DU?$char_traits@D@std@@V?$allocator@D@2@@std@@PEAUggml_tensor@@@std@@@2@$0A@@std@@@std@@QEAA?AV?$_Tree_iterator@V?$_Tree_val@U?$_Tree_simple_types@U?$pair@$$CBV?$basic_string@DU?$char_traits@D@std@@V?$allocator@D@2@@std@@PEAUggml_tensor@@@std@@@std@@@std@@@2@XZ
	?end@?$initializer_list@H@std@@QEBAPEBHXZ
	?end@?$initializer_list@U?$pair@$$CBW4parakeet_tensor@@PEBD@std@@@std@@QEBAPEBU?$pair@$$CBW4parakeet_tensor@@PEBD@2@XZ
	?end@?$initializer_list@U?$pair@$$CBW4parakeet_tensor@@W4ggml_op@@@std@@@std@@QEBAPEBU?$pair@$$CBW4parakeet_tensor@@W4ggml_op@@@2@XZ
	?end@?$vector@MV?$allocator@M@std@@@std@@QEAA?AV?$_Vector_iterator@V?$_Vector_val@U?$_Simple_types@M@std@@@std@@@2@XZ
	?eof@?$_Narrow_char_traits@DH@std@@SAHXZ
	?eq_int_type@?$_Narrow_char_traits@DH@std@@SA_NHH@Z
	?erase@?$basic_string@DU?$char_traits@D@std@@V?$allocator@D@2@@std@@QEAAAEAV12@_K0@Z
	?fill_hann_window@parakeet_mel_cache@@QEAAXH_NPEAM@Z
	?fill_sin_cos_table@parakeet_mel_cache@@QEAAXXZ
	?find@?$_Narrow_char_traits@DH@std@@SAPEBDQEBD_KAEBD@Z
	?find@?$_Tree@V?$_Tmap_traits@PEAUggml_backend_buffer_type@@PEAUggml_context@@U?$less@PEAUggml_backend_buffer_type@@@std@@V?$allocator@U?$pair@QEAUggml_backend_buffer_type@@PEAUggml_context@@@std@@@4@$0A@@std@@@std@@QEAA?AV?$_Tree_iterator@V?$_Tree_val@U?$_Tree_simple_types@U?$pair@QEAUggml_backend_buffer_type@@PEAUggml_context@@@std@@@std@@@std@@@2@AEBQEAUggml_backend_buffer_type@@@Z
	?find@?$_Tree@V?$_Tmap_traits@V?$basic_string@DU?$char_traits@D@std@@V?$allocator@D@2@@std@@HU?$less@V?$basic_string@DU?$char_traits@D@std@@V?$allocator@D@2@@std@@@2@V?$allocator@U?$pair@$$CBV?$basic_string@DU?$char_traits@D@std@@V?$allocator@D@2@@std@@H@std@@@2@$0A@@std@@@std@@QEAA?AV?$_Tree_iterator@V?$_Tree_val@U?$_Tree_simple_types@U?$pair@$$CBV?$basic_string@DU?$char_traits@D@std@@V?$allocator@D@2@@std@@H@std@@@std@@@std@@@2@AEBV?$basic_string@DU?$char_traits@D@std@@V?$allocator@D@2@@2@@Z
	?find@?$_Tree@V?$_Tmap_traits@V?$basic_string@DU?$char_traits@D@std@@V?$allocator@D@2@@std@@HU?$less@V?$basic_string@DU?$char_traits@D@std@@V?$allocator@D@2@@std@@@2@V?$allocator@U?$pair@$$CBV?$basic_string@DU?$char_traits@D@std@@V?$allocator@D@2@@std@@H@std@@@2@$0A@@std@@@std@@QEBA?AV?$_Tree_const_iterator@V?$_Tree_val@U?$_Tree_simple_types@U?$pair@$$CBV?$basic_string@DU?$char_traits@D@std@@V?$allocator@D@2@@std@@H@std@@@std@@@std@@@2@AEBV?$basic_string@DU?$char_traits@D@std@@V?$allocator@D@2@@2@@Z
	?find@?$_Tree@V?$_Tmap_traits@V?$basic_string@DU?$char_traits@D@std@@V?$allocator@D@2@@std@@PEAUggml_tensor@@U?$less@V?$basic_string@DU?$char_traits@D@std@@V?$allocator@D@2@@std@@@2@V?$allocator@U?$pair@$$CBV?$basic_string@DU?$char_traits@D@std@@V?$allocator@D@2@@std@@PEAUggml_tensor@@@std@@@2@$0A@@std@@@std@@QEAA?AV?$_Tree_iterator@V?$_Tree_val@U?$_Tree_simple_types@U?$pair@$$CBV?$basic_string@DU?$char_traits@D@std@@V?$allocator@D@2@@std@@PEAUggml_tensor@@@std@@@std@@@std@@@2@AEBV?$basic_string@DU?$char_traits@D@std@@V?$allocator@D@2@@2@@Z
	?find@?$basic_string@DU?$char_traits@D@std@@V?$allocator@D@2@@std@@QEBA_KD_K@Z
	?find@?$basic_string@DU?$char_traits@D@std@@V?$allocator@D@2@@std@@QEBA_KQEBD_K@Z
	?from_bytes@?$wstring_convert@V?$codecvt_utf8@_W$0BAPPPP@$0A@@std@@_WV?$allocator@_W@2@V?$allocator@D@2@@std@@QEAA?AV?$basic_string@_WU?$char_traits@_W@std@@V?$allocator@_W@2@@2@PEBD0@Z
	?from_bytes@?$wstring_convert@V?$codecvt_utf8@_W$0BAPPPP@$0A@@std@@_WV?$allocator@_W@2@V?$allocator@D@2@@std@@QEAA?AV?$basic_string@_WU?$char_traits@_W@std@@V?$allocator@_W@2@@2@PEBD@Z
	?front@?$basic_string@DU?$char_traits@D@std@@V?$allocator@D@2@@std@@QEAAAEADXZ
	?get@?$unique_ptr@Uggml_context@@Uggml_context_deleter@@@std@@QEBAPEAUggml_context@@XZ
	?get@?$unique_ptr@V?$tuple@P6AXUmel_worker_params@@PEBMAEBV?$vector@MV?$allocator@M@std@@@std@@AEBUparakeet_filters@@AEAUparakeet_mel@@AEBUparakeet_mel_cache@@@ZU1@PEBMV?$reference_wrapper@$$CBV?$vector@MV?$allocator@M@std@@@std@@@3@V?$reference_wrapper@$$CBUparakeet_filters@@@3@V?$reference_wrapper@Uparakeet_mel@@@3@V?$reference_wrapper@$$CBUparakeet_mel_cache@@@3@@std@@U?$default_delete@V?$tuple@P6AXUmel_worker_params@@PEBMAEBV?$vector@MV?$allocator@M@std@@@std@@AEBUparakeet_filters@@AEAUparakeet_mel@@AEBUparakeet_mel_cache@@@ZU1@PEBMV?$reference_wrapper@$$CBV?$vector@MV?$allocator@M@std@@@std@@@3@V?$reference_wrapper@$$CBUparakeet_filters@@@3@V?$reference_wrapper@Uparakeet_mel@@@3@V?$reference_wrapper@$$CBUparakeet_mel_cache@@@3@@std@@@2@@std@@QEBAPEAV?$tuple@P6AXUmel_worker_params@@PEBMAEBV?$vector@MV?$allocator@M@std@@@std@@AEBUparakeet_filters@@AEAUparakeet_mel@@AEBUparakeet_mel_cache@@@ZU1@PEBMV?$reference_wrapper@$$CBV?$vector@MV?$allocator@M@std@@@std@@@3@V?$reference_wrapper@$$CBUparakeet_filters@@@3@V?$reference_wrapper@Uparakeet_mel@@@3@V?$reference_wrapper@$$CBUparakeet_mel_cache@@@3@@2@XZ
	?get_deleter@?$unique_ptr@V?$tuple@P6AXUmel_worker_params@@PEBMAEBV?$vector@MV?$allocator@M@std@@@std@@AEBUparakeet_filters@@AEAUparakeet_mel@@AEBUparakeet_mel_cache@@@ZU1@PEBMV?$reference_wrapper@$$CBV?$vector@MV?$allocator@M@std@@@std@@@3@V?$reference_wrapper@$$CBUparakeet_filters@@@3@V?$reference_wrapper@Uparakeet_mel@@@3@V?$reference_wrapper@$$CBUparakeet_mel_cache@@@3@@std@@U?$default_delete@V?$tuple@P6AXUmel_worker_params@@PEBMAEBV?$vector@MV?$allocator@M@std@@@std@@AEBUparakeet_filters@@AEAUparakeet_mel@@AEBUparakeet_mel_cache@@@ZU1@PEBMV?$reference_wrapper@$$CBV?$vector@MV?$allocator@M@std@@@std@@@3@V?$reference_wrapper@$$CBUparakeet_filters@@@3@V?$reference_wrapper@Uparakeet_mel@@@3@V?$reference_wrapper@$$CBUparakeet_mel_cache@@@3@@std@@@2@@std@@QEAAAEAU?$default_delete@V?$tuple@P6AXUmel_worker_params@@PEBMAEBV?$vector@MV?$allocator@M@std@@@std@@AEBUparakeet_filters@@AEAUparakeet_mel@@AEBUparakeet_mel_cache@@@ZU1@PEBMV?$reference_wrapper@$$CBV?$vector@MV?$allocator@M@std@@@std@@@3@V?$reference_wrapper@$$CBUparakeet_filters@@@3@V?$reference_wrapper@Uparakeet_mel@@@3@V?$reference_wrapper@$$CBUparakeet_mel_cache@@@3@@std@@@2@XZ
	?hardware_concurrency@thread@std@@SAIXZ
	?imbue@?$basic_filebuf@DU?$char_traits@D@std@@@std@@MEAAXAEBVlocale@2@@Z
	?init@parakeet_mel_cache@@QEAAXH@Z
	?insert@?$_Tree@V?$_Tmap_traits@W4parakeet_tensor@@PEBDU?$less@W4parakeet_tensor@@@std@@V?$allocator@U?$pair@$$CBW4parakeet_tensor@@PEBD@std@@@3@$0A@@std@@@std@@QEAAXV?$initializer_list@U?$pair@$$CBW4parakeet_tensor@@PEBD@std@@@2@@Z
	?insert@?$_Tree@V?$_Tmap_traits@W4parakeet_tensor@@W4ggml_op@@U?$less@W4parakeet_tensor@@@std@@V?$allocator@U?$pair@$$CBW4parakeet_tensor@@W4ggml_op@@@std@@@4@$0A@@std@@@std@@QEAAXV?$initializer_list@U?$pair@$$CBW4parakeet_tensor@@W4ggml_op@@@std@@@2@@Z
	?join@thread@std@@QEAAXXZ
	?joinable@thread@std@@QEBA_NXZ
	?length@?$_Narrow_char_traits@DH@std@@SA_KQEBD@Z
	?length@?$basic_string@DU?$char_traits@D@std@@V?$allocator@D@2@@std@@QEBA_KXZ
	?max_size@?$_Default_allocator_traits@V?$allocator@D@std@@@std@@SA_KAEBV?$allocator@D@2@@Z
	?max_size@?$_Default_allocator_traits@V?$allocator@E@std@@@std@@SA_KAEBV?$allocator@E@2@@Z
	?max_size@?$_Default_allocator_traits@V?$allocator@H@std@@@std@@SA_KAEBV?$allocator@H@2@@Z
	?max_size@?$_Default_allocator_traits@V?$allocator@I@std@@@std@@SA_KAEBV?$allocator@I@2@@Z
	?max_size@?$_Default_allocator_traits@V?$allocator@M@std@@@std@@SA_KAEBV?$allocator@M@2@@Z
	?max_size@?$_Default_allocator_traits@V?$allocator@PEAUggml_backend@@@std@@@std@@SA_KAEBV?$allocator@PEAUggml_backend@@@2@@Z
	?max_size@?$_Default_allocator_traits@V?$allocator@PEAUggml_backend_buffer@@@std@@@std@@SA_KAEBV?$allocator@PEAUggml_backend_buffer@@@2@@Z
	?max_size@?$_Default_allocator_traits@V?$allocator@PEAUggml_context@@@std@@@std@@SA_KAEBV?$allocator@PEAUggml_context@@@2@@Z
	?max_size@?$_Default_allocator_traits@V?$allocator@U?$_Tree_node@U?$pair@$$CBHV?$basic_string@DU?$char_traits@D@std@@V?$allocator@D@2@@std@@@std@@PEAX@std@@@std@@@std@@SA_KAEBV?$allocator@U?$_Tree_node@U?$pair@$$CBHV?$basic_string@DU?$char_traits@D@std@@V?$allocator@D@2@@std@@@std@@PEAX@std@@@2@@Z
	?max_size@?$_Default_allocator_traits@V?$allocator@U?$_Tree_node@U?$pair@$$CBV?$basic_string@DU?$char_traits@D@std@@V?$allocator@D@2@@std@@H@std@@PEAX@std@@@std@@@std@@SA_KAEBV?$allocator@U?$_Tree_node@U?$pair@$$CBV?$basic_string@DU?$char_traits@D@std@@V?$allocator@D@2@@std@@H@std@@PEAX@std@@@2@@Z
	?max_size@?$_Default_allocator_traits@V?$allocator@U?$_Tree_node@U?$pair@$$CBV?$basic_string@DU?$char_traits@D@std@@V?$allocator@D@2@@std@@PEAUggml_tensor@@@std@@PEAX@std@@@std@@@std@@SA_KAEBV?$allocator@U?$_Tree_node@U?$pair@$$CBV?$basic_string@DU?$char_traits@D@std@@V?$allocator@D@2@@std@@PEAUggml_tensor@@@std@@PEAX@std@@@2@@Z
	?max_size@?$_Default_allocator_traits@V?$allocator@U?$_Tree_node@U?$pair@$$CBW4parakeet_tensor@@PEBD@std@@PEAX@std@@@std@@@std@@SA_KAEBV?$allocator@U?$_Tree_node@U?$pair@$$CBW4parakeet_tensor@@PEBD@std@@PEAX@std@@@2@@Z
	?max_size@?$_Default_allocator_traits@V?$allocator@U?$_Tree_node@U?$pair@$$CBW4parakeet_tensor@@W4ggml_op@@@std@@PEAX@std@@@std@@@std@@SA_KAEBV?$allocator@U?$_Tree_node@U?$pair@$$CBW4parakeet_tensor@@W4ggml_op@@@std@@PEAX@std@@@2@@Z
	?max_size@?$_Default_allocator_traits@V?$allocator@U?$_Tree_node@U?$pair@QEAUggml_backend_buffer_type@@PEAUggml_context@@@std@@PEAX@std@@@std@@@std@@SA_KAEBV?$allocator@U?$_Tree_node@U?$pair@QEAUggml_backend_buffer_type@@PEAUggml_context@@@std@@PEAX@std@@@2@@Z
	?max_size@?$_Default_allocator_traits@V?$allocator@U?$pair@PEAUggml_backend_device@@PEAUggml_backend_buffer_type@@@std@@@std@@@std@@SA_KAEBV?$allocator@U?$pair@PEAUggml_backend_device@@PEAUggml_backend_buffer_type@@@std@@@2@@Z
	?max_size@?$_Default_allocator_traits@V?$allocator@Uparakeet_layer_encoder@@@std@@@std@@SA_KAEBV?$allocator@Uparakeet_layer_encoder@@@2@@Z
	?max_size@?$_Default_allocator_traits@V?$allocator@Uparakeet_lsmt_layer@@@std@@@std@@SA_KAEBV?$allocator@Uparakeet_lsmt_layer@@@2@@Z
	?max_size@?$_Default_allocator_traits@V?$allocator@Uparakeet_lstm_state_layer@@@std@@@std@@SA_KAEBV?$allocator@Uparakeet_lstm_state_layer@@@2@@Z
	?max_size@?$_Default_allocator_traits@V?$allocator@Uparakeet_segment@@@std@@@std@@SA_KAEBV?$allocator@Uparakeet_segment@@@2@@Z
	?max_size@?$_Default_allocator_traits@V?$allocator@Uparakeet_token_data@@@std@@@std@@SA_KAEBV?$allocator@Uparakeet_token_data@@@2@@Z
	?max_size@?$_Default_allocator_traits@V?$allocator@Vthread@std@@@std@@@std@@SA_KAEBV?$allocator@Vthread@std@@@2@@Z
	?max_size@?$_Default_allocator_traits@V?$allocator@_W@std@@@std@@SA_KAEBV?$allocator@_W@2@@Z
	?max_size@?$_Tree@V?$_Tmap_traits@HV?$basic_string@DU?$char_traits@D@std@@V?$allocator@D@2@@std@@U?$less@H@2@V?$allocator@U?$pair@$$CBHV?$basic_string@DU?$char_traits@D@std@@V?$allocator@D@2@@std@@@std@@@2@$0A@@std@@@std@@QEBA_KXZ
	?max_size@?$_Tree@V?$_Tmap_traits@PEAUggml_backend_buffer_type@@PEAUggml_context@@U?$less@PEAUggml_backend_buffer_type@@@std@@V?$allocator@U?$pair@QEAUggml_backend_buffer_type@@PEAUggml_context@@@std@@@4@$0A@@std@@@std@@QEBA_KXZ
	?max_size@?$_Tree@V?$_Tmap_traits@V?$basic_string@DU?$char_traits@D@std@@V?$allocator@D@2@@std@@HU?$less@V?$basic_string@DU?$char_traits@D@std@@V?$allocator@D@2@@std@@@2@V?$allocator@U?$pair@$$CBV?$basic_string@DU?$char_traits@D@std@@V?$allocator@D@2@@std@@H@std@@@2@$0A@@std@@@std@@QEBA_KXZ
	?max_size@?$_Tree@V?$_Tmap_traits@V?$basic_string@DU?$char_traits@D@std@@V?$allocator@D@2@@std@@PEAUggml_tensor@@U?$less@V?$basic_string@DU?$char_traits@D@std@@V?$allocator@D@2@@std@@@2@V?$allocator@U?$pair@$$CBV?$basic_string@DU?$char_traits@D@std@@V?$allocator@D@2@@std@@PEAUggml_tensor@@@std@@@2@$0A@@std@@@std@@QEBA_KXZ
	?max_size@?$_Tree@V?$_Tmap_traits@W4parakeet_tensor@@PEBDU?$less@W4parakeet_tensor@@@std@@V?$allocator@U?$pair@$$CBW4parakeet_tensor@@PEBD@std@@@3@$0A@@std@@@std@@QEBA_KXZ
	?max_size@?$_Tree@V?$_Tmap_traits@W4parakeet_tensor@@W4ggml_op@@U?$less@W4parakeet_tensor@@@std@@V?$allocator@U?$pair@$$CBW4parakeet_tensor@@W4ggml_op@@@std@@@4@$0A@@std@@@std@@QEBA_KXZ
	?max_size@?$basic_string@DU?$char_traits@D@std@@V?$allocator@D@2@@std@@QEBA_KXZ
	?max_size@?$basic_string@_WU?$char_traits@_W@std@@V?$allocator@_W@2@@std@@QEBA_KXZ
	?max_size@?$vector@DV?$allocator@D@std@@@std@@QEBA_KXZ
	?max_size@?$vector@EV?$allocator@E@std@@@std@@QEBA_KXZ
	?max_size@?$vector@HV?$allocator@H@std@@@std@@QEBA_KXZ
	?max_size@?$vector@IV?$allocator@I@std@@@std@@QEBA_KXZ
	?max_size@?$vector@MV?$allocator@M@std@@@std@@QEBA_KXZ
	?max_size@?$vector@PEAUggml_backend@@V?$allocator@PEAUggml_backend@@@std@@@std@@QEBA_KXZ
	?max_size@?$vector@PEAUggml_backend_buffer@@V?$allocator@PEAUggml_backend_buffer@@@std@@@std@@QEBA_KXZ
	?max_size@?$vector@PEAUggml_context@@V?$allocator@PEAUggml_context@@@std@@@std@@QEBA_KXZ
	?max_size@?$vector@U?$pair@PEAUggml_backend_device@@PEAUggml_backend_buffer_type@@@std@@V?$allocator@U?$pair@PEAUggml_backend_device@@PEAUggml_backend_buffer_type@@@std@@@2@@std@@QEBA_KXZ
	?max_size@?$vector@Uparakeet_layer_encoder@@V?$allocator@Uparakeet_layer_encoder@@@std@@@std@@QEBA_KXZ
	?max_size@?$vector@Uparakeet_lsmt_layer@@V?$allocator@Uparakeet_lsmt_layer@@@std@@@std@@QEBA_KXZ
	?max_size@?$vector@Uparakeet_lstm_state_layer@@V?$allocator@Uparakeet_lstm_state_layer@@@std@@@std@@QEBA_KXZ
	?max_size@?$vector@Uparakeet_segment@@V?$allocator@Uparakeet_segment@@@std@@@std@@QEBA_KXZ
	?max_size@?$vector@Uparakeet_token_data@@V?$allocator@Uparakeet_token_data@@@std@@@std@@QEBA_KXZ
	?max_size@?$vector@Vthread@std@@V?$allocator@Vthread@std@@@2@@std@@QEBA_KXZ
	?move@?$_Char_traits@DH@std@@SAPEADQEADQEBD_K@Z
	?move@?$_Char_traits@_WG@std@@SAPEA_WQEA_WQEB_W_K@Z
	?not_eof@?$_Narrow_char_traits@DH@std@@SAHH@Z
	?open@?$basic_filebuf@DU?$char_traits@D@std@@@std@@QEAAPEAV12@PEBDHH@Z
	?open@?$basic_filebuf@DU?$char_traits@D@std@@@std@@QEAAPEAV12@PEB_WHH@Z
	?overflow@?$basic_filebuf@DU?$char_traits@D@std@@@std@@MEAAHH@Z
	?pbackfail@?$basic_filebuf@DU?$char_traits@D@std@@@std@@MEAAHH@Z
	?pointer_to@?$pointer_traits@PEAU?$pair@QEAUggml_backend_buffer_type@@PEAUggml_context@@@std@@@std@@SAPEAU?$pair@QEAUggml_backend_buffer_type@@PEAUggml_context@@@2@AEAU32@@Z
	?pointer_to@?$pointer_traits@PEBU?$pair@$$CBV?$basic_string@DU?$char_traits@D@std@@V?$allocator@D@2@@std@@H@std@@@std@@SAPEBU?$pair@$$CBV?$basic_string@DU?$char_traits@D@std@@V?$allocator@D@2@@std@@H@2@AEBU32@@Z
	?push_back@?$basic_string@DU?$char_traits@D@std@@V?$allocator@D@2@@std@@QEAAXD@Z
	?push_back@?$basic_string@_WU?$char_traits@_W@std@@V?$allocator@_W@2@@std@@QEAAX_W@Z
	?push_back@?$vector@HV?$allocator@H@std@@@std@@QEAAXAEBH@Z
	?push_back@?$vector@PEAUggml_backend@@V?$allocator@PEAUggml_backend@@@std@@@std@@QEAAXAEBQEAUggml_backend@@@Z
	?push_back@?$vector@Uparakeet_segment@@V?$allocator@Uparakeet_segment@@@std@@@std@@QEAAX$$QEAUparakeet_segment@@@Z
	?push_back@?$vector@Uparakeet_token_data@@V?$allocator@Uparakeet_token_data@@@std@@@std@@QEAAXAEBUparakeet_token_data@@@Z
	?release@?$unique_ptr@V?$tuple@P6AXUmel_worker_params@@PEBMAEBV?$vector@MV?$allocator@M@std@@@std@@AEBUparakeet_filters@@AEAUparakeet_mel@@AEBUparakeet_mel_cache@@@ZU1@PEBMV?$reference_wrapper@$$CBV?$vector@MV?$allocator@M@std@@@std@@@3@V?$reference_wrapper@$$CBUparakeet_filters@@@3@V?$reference_wrapper@Uparakeet_mel@@@3@V?$reference_wrapper@$$CBUparakeet_mel_cache@@@3@@std@@U?$default_delete@V?$tuple@P6AXUmel_worker_params@@PEBMAEBV?$vector@MV?$allocator@M@std@@@std@@AEBUparakeet_filters@@AEAUparakeet_mel@@AEBUparakeet_mel_cache@@@ZU1@PEBMV?$reference_wrapper@$$CBV?$vector@MV?$allocator@M@std@@@std@@@3@V?$reference_wrapper@$$CBUparakeet_filters@@@3@V?$reference_wrapper@Uparakeet_mel@@@3@V?$reference_wrapper@$$CBUparakeet_mel_cache@@@3@@std@@@2@@std@@QEAAPEAV?$tuple@P6AXUmel_worker_params@@PEBMAEBV?$vector@MV?$allocator@M@std@@@std@@AEBUparakeet_filters@@AEAUparakeet_mel@@AEBUparakeet_mel_cache@@@ZU1@PEBMV?$reference_wrapper@$$CBV?$vector@MV?$allocator@M@std@@@std@@@3@V?$reference_wrapper@$$CBUparakeet_filters@@@3@V?$reference_wrapper@Uparakeet_mel@@@3@V?$reference_wrapper@$$CBUparakeet_mel_cache@@@3@@2@XZ
	?release@?$unique_ptr@V_Facet_base@std@@U?$default_delete@V_Facet_base@std@@@2@@std@@QEAAPEAV_Facet_base@2@XZ
	?reserve@?$basic_string@DU?$char_traits@D@std@@V?$allocator@D@2@@std@@QEAAX_K@Z
	?reserve@?$vector@DV?$allocator@D@std@@@std@@QEAAX_K@Z
	?reserve@?$vector@MV?$allocator@M@std@@@std@@QEAAX_K@Z
	?resize@?$vector@DV?$allocator@D@std@@@std@@QEAAX_K@Z
	?resize@?$vector@EV?$allocator@E@std@@@std@@QEAAX_K@Z
	?resize@?$vector@IV?$allocator@I@std@@@std@@QEAAX_K@Z
	?resize@?$vector@MV?$allocator@M@std@@@std@@QEAAX_K@Z
	?resize@?$vector@Uparakeet_layer_encoder@@V?$allocator@Uparakeet_layer_encoder@@@std@@@std@@QEAAX_K@Z
	?resize@?$vector@Uparakeet_lsmt_layer@@V?$allocator@Uparakeet_lsmt_layer@@@std@@@std@@QEAAX_K@Z
	?resize@?$vector@Uparakeet_lstm_state_layer@@V?$allocator@Uparakeet_lstm_state_layer@@@std@@@std@@QEAAX_K@Z
	?seekoff@?$basic_filebuf@DU?$char_traits@D@std@@@std@@MEAA?AV?$fpos@U_Mbstatet@@@2@_JHH@Z
	?seekpos@?$basic_filebuf@DU?$char_traits@D@std@@@std@@MEAA?AV?$fpos@U_Mbstatet@@@2@V32@H@Z
	?select_on_container_copy_construction@?$_Default_allocator_traits@V?$allocator@D@std@@@std@@SA?AV?$allocator@D@2@AEBV32@@Z
	?select_on_container_copy_construction@?$_Default_allocator_traits@V?$allocator@PEAUggml_backend@@@std@@@std@@SA?AV?$allocator@PEAUggml_backend@@@2@AEBV32@@Z
	?select_on_container_copy_construction@?$_Default_allocator_traits@V?$allocator@U?$pair@PEAUggml_backend_device@@PEAUggml_backend_buffer_type@@@std@@@std@@@std@@SA?AV?$allocator@U?$pair@PEAUggml_backend_device@@PEAUggml_backend_buffer_type@@@std@@@2@AEBV32@@Z
	?select_on_container_copy_construction@?$_Default_allocator_traits@V?$allocator@_W@std@@@std@@SA?AV?$allocator@_W@2@AEBV32@@Z
	?setbuf@?$basic_filebuf@DU?$char_traits@D@std@@@std@@MEAAPEAV?$basic_streambuf@DU?$char_traits@D@std@@@2@PEAD_J@Z
	?size@?$_Tree@V?$_Tmap_traits@V?$basic_string@DU?$char_traits@D@std@@V?$allocator@D@2@@std@@PEAUggml_tensor@@U?$less@V?$basic_string@DU?$char_traits@D@std@@V?$allocator@D@2@@std@@@2@V?$allocator@U?$pair@$$CBV?$basic_string@DU?$char_traits@D@std@@V?$allocator@D@2@@std@@PEAUggml_tensor@@@std@@@2@$0A@@std@@@std@@QEBA_KXZ
	?size@?$basic_string@DU?$char_traits@D@std@@V?$allocator@D@2@@std@@QEBA_KXZ
	?size@?$basic_string@_WU?$char_traits@_W@std@@V?$allocator@_W@2@@std@@QEBA_KXZ
	?size@?$vector@DV?$allocator@D@std@@@std@@QEBA_KXZ
	?size@?$vector@EV?$allocator@E@std@@@std@@QEBA_KXZ
	?size@?$vector@HV?$allocator@H@std@@@std@@QEBA_KXZ
	?size@?$vector@MV?$allocator@M@std@@@std@@QEBA_KXZ
	?size@?$vector@PEAUggml_backend@@V?$allocator@PEAUggml_backend@@@std@@@std@@QEBA_KXZ
	?size@?$vector@Uparakeet_segment@@V?$allocator@Uparakeet_segment@@@std@@@std@@QEBA_KXZ
	?size@?$vector@Uparakeet_token_data@@V?$allocator@Uparakeet_token_data@@@std@@@std@@QEBA_KXZ
	?state@?$fpos@U_Mbstatet@@@std@@QEBA?AU_Mbstatet@@XZ
	?substr@?$basic_string@DU?$char_traits@D@std@@V?$allocator@D@2@@std@@QEBA?AV12@_K0@Z
	?sync@?$basic_filebuf@DU?$char_traits@D@std@@@std@@MEAAHXZ
	?to_char_type@?$_Narrow_char_traits@DH@std@@SADH@Z
	?to_int_type@?$_Narrow_char_traits@DH@std@@SAHD@Z
	?uflow@?$basic_filebuf@DU?$char_traits@D@std@@@std@@MEAAHXZ
	?underflow@?$basic_filebuf@DU?$char_traits@D@std@@@std@@MEAAHXZ
	?what@exception@std@@UEBAPEBDXZ
	?xsgetn@?$basic_filebuf@DU?$char_traits@D@std@@@std@@MEAA_JPEAD_J@Z
	?xsputn@?$basic_filebuf@DU?$char_traits@D@std@@@std@@MEAA_JPEBD_J@Z
	__local_stdio_printf_options
	parakeet_chunk
	parakeet_context_default_params
	parakeet_context_default_params_by_ref
	parakeet_encode
	parakeet_encode_with_state
	parakeet_free
	parakeet_free_context_params
	parakeet_free_params
	parakeet_free_state
	parakeet_full
	parakeet_full_default_params
	parakeet_full_default_params_by_ref
	parakeet_full_get_segment_t0
	parakeet_full_get_segment_t0_from_state
	parakeet_full_get_segment_t1
	parakeet_full_get_segment_t1_from_state
	parakeet_full_get_segment_text
	parakeet_full_get_segment_text_from_state
	parakeet_full_get_token_data
	parakeet_full_get_token_data_from_state
	parakeet_full_get_token_id
	parakeet_full_get_token_id_from_state
	parakeet_full_get_token_p
	parakeet_full_get_token_p_from_state
	parakeet_full_get_token_text
	parakeet_full_get_token_text_from_state
	parakeet_full_n_segments
	parakeet_full_n_segments_from_state
	parakeet_full_n_tokens
	parakeet_full_n_tokens_from_state
	parakeet_full_with_state
	parakeet_get_logits
	parakeet_get_logits_from_state
	parakeet_get_timings
	parakeet_init_from_buffer_with_params
	parakeet_init_from_buffer_with_params_no_state
	parakeet_init_from_file_with_params
	parakeet_init_from_file_with_params_no_state
	parakeet_init_state
	parakeet_init_with_params
	parakeet_init_with_params_no_state
	parakeet_log_set
	parakeet_model_ftype
	parakeet_model_n_audio_ctx
	parakeet_model_n_audio_head
	parakeet_model_n_audio_layer
	parakeet_model_n_audio_state
	parakeet_model_n_mels
	parakeet_model_n_vocab
	parakeet_n_audio_ctx
	parakeet_n_len
	parakeet_n_len_from_state
	parakeet_n_vocab
	parakeet_pcm_to_mel
	parakeet_pcm_to_mel_with_state
	parakeet_print_system_info
	parakeet_print_timings
	parakeet_reset_timings
	parakeet_set_mel
	parakeet_set_mel_with_state
	parakeet_token_blank
	parakeet_token_bos
	parakeet_token_count
	parakeet_token_to_str
	parakeet_token_to_text
	parakeet_token_unk
	parakeet_tokenize
	parakeet_version
	vsnprintf
	wmemcpy
	wmemset
